Archive member included to satisfy reference by file (symbol)

uspi/libuspi.a(uspilibrary.o)
                              src/main.o (USPiInitialize)
uspi/libuspi.a(dwhcidevice.o)
                              uspi/libuspi.a(uspilibrary.o) (DWHCIDevice)
uspi/libuspi.a(dwhciregister.o)
                              uspi/libuspi.a(dwhcidevice.o) (DWHCIRegister)
uspi/libuspi.a(dwhcixferstagedata.o)
                              uspi/libuspi.a(dwhcidevice.o) (DWHCITransferStageData)
uspi/libuspi.a(usbdevice.o)   uspi/libuspi.a(dwhcixferstagedata.o) (USBDeviceGetAddress)
uspi/libuspi.a(usbendpoint.o)
                              uspi/libuspi.a(usbdevice.o) (USBEndpoint)
uspi/libuspi.a(usbrequest.o)  uspi/libuspi.a(dwhcidevice.o) (USBRequest)
uspi/libuspi.a(devicenameservice.o)
                              uspi/libuspi.a(uspilibrary.o) (DeviceNameService)
uspi/libuspi.a(macaddress.o)  uspi/libuspi.a(uspilibrary.o) (MACAddressCopyTo)
uspi/libuspi.a(smsc951x.o)    uspi/libuspi.a(uspilibrary.o) (SMSC951xDeviceGetMACAddress)
uspi/libuspi.a(lan7800.o)     uspi/libuspi.a(uspilibrary.o) (LAN7800DeviceGetMACAddress)
uspi/libuspi.a(string.o)      uspi/libuspi.a(uspilibrary.o) (String)
uspi/libuspi.a(util.o)        uspi/libuspi.a(macaddress.o) (uspi_memset)
uspi/libuspi.a(usbmassdevice.o)
                              uspi/libuspi.a(uspilibrary.o) (USBBulkOnlyMassStorageDeviceSeek)
uspi/libuspi.a(dwhciframeschednper.o)
                              uspi/libuspi.a(dwhcixferstagedata.o) (DWHCIFrameSchedulerNonPeriodic)
uspi/libuspi.a(dwhciframeschedper.o)
                              uspi/libuspi.a(dwhcixferstagedata.o) (DWHCIFrameSchedulerPeriodic)
uspi/libuspi.a(usbkeyboard.o)
                              uspi/libuspi.a(uspilibrary.o) (USBKeyboardDeviceRegisterKeyPressedHandler)
uspi/libuspi.a(dwhcirootport.o)
                              uspi/libuspi.a(dwhcidevice.o) (DWHCIRootPort)
uspi/libuspi.a(usbmouse.o)    uspi/libuspi.a(uspilibrary.o) (USBMouseDeviceRegisterStatusHandler)
uspi/libuspi.a(dwhciframeschednsplit.o)
                              uspi/libuspi.a(dwhcixferstagedata.o) (DWHCIFrameSchedulerNoSplit)
uspi/libuspi.a(usbgamepad.o)  uspi/libuspi.a(uspilibrary.o) (USBGamePadDeviceRegisterStatusHandler)
uspi/libuspi.a(synchronize.o)
                              uspi/libuspi.a(dwhcidevice.o) (uspi_EnterCritical)
uspi/libuspi.a(usbstring.o)   uspi/libuspi.a(usbdevice.o) (USBString)
uspi/libuspi.a(usbmidi.o)     uspi/libuspi.a(uspilibrary.o) (USBMIDIDeviceRegisterPacketHandler)
uspi/libuspi.a(usbconfigparser.o)
                              uspi/libuspi.a(usbdevice.o) (USBConfigurationParser)
uspi/libuspi.a(usbdevicefactory.o)
                              uspi/libuspi.a(dwhcirootport.o) (USBDeviceFactoryGetDevice)
uspi/libuspi.a(usbstandardhub.o)
                              uspi/libuspi.a(usbdevicefactory.o) (USBStandardHub)
uspi/libuspi.a(keymap.o)      uspi/libuspi.a(usbkeyboard.o) (KeyMap)
i:/development/arm/gnu tools arm embedded/5.4 2016q2/bin/../lib/gcc/arm-none-eabi/5.4.1/fpu\libgcc.a(_aeabi_uldivmod.o)
                              src/ff.o (__aeabi_uldivmod)
i:/development/arm/gnu tools arm embedded/5.4 2016q2/bin/../lib/gcc/arm-none-eabi/5.4.1/fpu\libgcc.a(_udivmoddi4.o)
                              i:/development/arm/gnu tools arm embedded/5.4 2016q2/bin/../lib/gcc/arm-none-eabi/5.4.1/fpu\libgcc.a(_aeabi_uldivmod.o) (__udivmoddi4)
i:/development/arm/gnu tools arm embedded/5.4 2016q2/bin/../lib/gcc/arm-none-eabi/5.4.1/fpu\libgcc.a(_dvmd_tls.o)
                              i:/development/arm/gnu tools arm embedded/5.4 2016q2/bin/../lib/gcc/arm-none-eabi/5.4.1/fpu\libgcc.a(_aeabi_uldivmod.o) (__aeabi_ldiv0)
i:/development/arm/gnu tools arm embedded/5.4 2016q2/bin/../lib/gcc/arm-none-eabi/5.4.1/fpu\libgcc.a(_clzdi2.o)
                              i:/development/arm/gnu tools arm embedded/5.4 2016q2/bin/../lib/gcc/arm-none-eabi/5.4.1/fpu\libgcc.a(_udivmoddi4.o) (__clzdi2)
i:/development/arm/gnu tools arm embedded/5.4 2016q2/bin/../lib/gcc/arm-none-eabi/5.4.1/fpu\libgcc.a(_clzsi2.o)
                              i:/development/arm/gnu tools arm embedded/5.4 2016q2/bin/../lib/gcc/arm-none-eabi/5.4.1/fpu\libgcc.a(_clzdi2.o) (__clzsi2)
i:/development/arm/gnu tools arm embedded/5.4 2016q2/bin/../lib/gcc/arm-none-eabi/5.4.1/../../../../arm-none-eabi/lib/fpu\libc.a(lib_a-abs.o)
                              src/vga.o (abs)
i:/development/arm/gnu tools arm embedded/5.4 2016q2/bin/../lib/gcc/arm-none-eabi/5.4.1/../../../../arm-none-eabi/lib/fpu\libc.a(lib_a-aeabi_atexit.o)
                              src/main.o (__aeabi_atexit)
i:/development/arm/gnu tools arm embedded/5.4 2016q2/bin/../lib/gcc/arm-none-eabi/5.4.1/../../../../arm-none-eabi/lib/fpu\libc.a(lib_a-cxa_atexit.o)
                              i:/development/arm/gnu tools arm embedded/5.4 2016q2/bin/../lib/gcc/arm-none-eabi/5.4.1/../../../../arm-none-eabi/lib/fpu\libc.a(lib_a-aeabi_atexit.o) (__cxa_atexit)
i:/development/arm/gnu tools arm embedded/5.4 2016q2/bin/../lib/gcc/arm-none-eabi/5.4.1/../../../../arm-none-eabi/lib/fpu\libc.a(lib_a-init.o)
                              src/armc-cstartup.o (__libc_init_array)
i:/development/arm/gnu tools arm embedded/5.4 2016q2/bin/../lib/gcc/arm-none-eabi/5.4.1/../../../../arm-none-eabi/lib/fpu\libc.a(lib_a-malloc.o)
                              src/armc-cppstubs.o (malloc)
i:/development/arm/gnu tools arm embedded/5.4 2016q2/bin/../lib/gcc/arm-none-eabi/5.4.1/../../../../arm-none-eabi/lib/fpu\libc.a(lib_a-mallocr.o)
                              i:/development/arm/gnu tools arm embedded/5.4 2016q2/bin/../lib/gcc/arm-none-eabi/5.4.1/../../../../arm-none-eabi/lib/fpu\libc.a(lib_a-malloc.o) (_malloc_r)
i:/development/arm/gnu tools arm embedded/5.4 2016q2/bin/../lib/gcc/arm-none-eabi/5.4.1/../../../../arm-none-eabi/lib/fpu\libc.a(lib_a-memcpy-stub.o)
                              src/rpi-mailbox-interface.o (memcpy)
i:/development/arm/gnu tools arm embedded/5.4 2016q2/bin/../lib/gcc/arm-none-eabi/5.4.1/../../../../arm-none-eabi/lib/fpu\libc.a(lib_a-memset.o)
                              src/Keyboard.o (memset)
i:/development/arm/gnu tools arm embedded/5.4 2016q2/bin/../lib/gcc/arm-none-eabi/5.4.1/../../../../arm-none-eabi/lib/fpu\libc.a(lib_a-mlock.o)
                              i:/development/arm/gnu tools arm embedded/5.4 2016q2/bin/../lib/gcc/arm-none-eabi/5.4.1/../../../../arm-none-eabi/lib/fpu\libc.a(lib_a-mallocr.o) (__malloc_lock)
i:/development/arm/gnu tools arm embedded/5.4 2016q2/bin/../lib/gcc/arm-none-eabi/5.4.1/../../../../arm-none-eabi/lib/fpu\libc.a(lib_a-printf.o)
                              src/rpi-aux.o (printf)
i:/development/arm/gnu tools arm embedded/5.4 2016q2/bin/../lib/gcc/arm-none-eabi/5.4.1/../../../../arm-none-eabi/lib/fpu\libc.a(lib_a-reent.o)
                              src/armc-cstubs.o (errno)
i:/development/arm/gnu tools arm embedded/5.4 2016q2/bin/../lib/gcc/arm-none-eabi/5.4.1/../../../../arm-none-eabi/lib/fpu\libc.a(lib_a-sbrkr.o)
                              i:/development/arm/gnu tools arm embedded/5.4 2016q2/bin/../lib/gcc/arm-none-eabi/5.4.1/../../../../arm-none-eabi/lib/fpu\libc.a(lib_a-mallocr.o) (_sbrk_r)
i:/development/arm/gnu tools arm embedded/5.4 2016q2/bin/../lib/gcc/arm-none-eabi/5.4.1/../../../../arm-none-eabi/lib/fpu\libc.a(lib_a-snprintf.o)
                              src/terminal.o (snprintf)
i:/development/arm/gnu tools arm embedded/5.4 2016q2/bin/../lib/gcc/arm-none-eabi/5.4.1/../../../../arm-none-eabi/lib/fpu\libc.a(lib_a-strcpy.o)
                              src/terminal.o (strcpy)
i:/development/arm/gnu tools arm embedded/5.4 2016q2/bin/../lib/gcc/arm-none-eabi/5.4.1/../../../../arm-none-eabi/lib/fpu\libc.a(lib_a-strlen-stub.o)
                              src/terminal.o (strlen)
i:/development/arm/gnu tools arm embedded/5.4 2016q2/bin/../lib/gcc/arm-none-eabi/5.4.1/../../../../arm-none-eabi/lib/fpu\libc.a(lib_a-strncmp.o)
                              src/basic.o (strncmp)
i:/development/arm/gnu tools arm embedded/5.4 2016q2/bin/../lib/gcc/arm-none-eabi/5.4.1/../../../../arm-none-eabi/lib/fpu\libc.a(lib_a-strrchr.o)
                              src/basic.o (strrchr)
i:/development/arm/gnu tools arm embedded/5.4 2016q2/bin/../lib/gcc/arm-none-eabi/5.4.1/../../../../arm-none-eabi/lib/fpu\libc.a(lib_a-svfprintf.o)
                              i:/development/arm/gnu tools arm embedded/5.4 2016q2/bin/../lib/gcc/arm-none-eabi/5.4.1/../../../../arm-none-eabi/lib/fpu\libc.a(lib_a-snprintf.o) (_svfprintf_r)
i:/development/arm/gnu tools arm embedded/5.4 2016q2/bin/../lib/gcc/arm-none-eabi/5.4.1/../../../../arm-none-eabi/lib/fpu\libc.a(lib_a-vfprintf.o)
                              i:/development/arm/gnu tools arm embedded/5.4 2016q2/bin/../lib/gcc/arm-none-eabi/5.4.1/../../../../arm-none-eabi/lib/fpu\libc.a(lib_a-printf.o) (_vfprintf_r)
i:/development/arm/gnu tools arm embedded/5.4 2016q2/bin/../lib/gcc/arm-none-eabi/5.4.1/../../../../arm-none-eabi/lib/fpu\libc.a(lib_a-vprintf.o)
                              src/main.o (vprintf)
i:/development/arm/gnu tools arm embedded/5.4 2016q2/bin/../lib/gcc/arm-none-eabi/5.4.1/../../../../arm-none-eabi/lib/fpu\libc.a(lib_a-wsetup.o)
                              i:/development/arm/gnu tools arm embedded/5.4 2016q2/bin/../lib/gcc/arm-none-eabi/5.4.1/../../../../arm-none-eabi/lib/fpu\libc.a(lib_a-vfprintf.o) (__swsetup_r)
i:/development/arm/gnu tools arm embedded/5.4 2016q2/bin/../lib/gcc/arm-none-eabi/5.4.1/../../../../arm-none-eabi/lib/fpu\libc.a(lib_a-__atexit.o)
                              i:/development/arm/gnu tools arm embedded/5.4 2016q2/bin/../lib/gcc/arm-none-eabi/5.4.1/../../../../arm-none-eabi/lib/fpu\libc.a(lib_a-cxa_atexit.o) (__register_exitproc)
i:/development/arm/gnu tools arm embedded/5.4 2016q2/bin/../lib/gcc/arm-none-eabi/5.4.1/../../../../arm-none-eabi/lib/fpu\libc.a(lib_a-dtoa.o)
                              i:/development/arm/gnu tools arm embedded/5.4 2016q2/bin/../lib/gcc/arm-none-eabi/5.4.1/../../../../arm-none-eabi/lib/fpu\libc.a(lib_a-svfprintf.o) (_dtoa_r)
i:/development/arm/gnu tools arm embedded/5.4 2016q2/bin/../lib/gcc/arm-none-eabi/5.4.1/../../../../arm-none-eabi/lib/fpu\libc.a(lib_a-fflush.o)
                              i:/development/arm/gnu tools arm embedded/5.4 2016q2/bin/../lib/gcc/arm-none-eabi/5.4.1/../../../../arm-none-eabi/lib/fpu\libc.a(lib_a-vfprintf.o) (_fflush_r)
i:/development/arm/gnu tools arm embedded/5.4 2016q2/bin/../lib/gcc/arm-none-eabi/5.4.1/../../../../arm-none-eabi/lib/fpu\libc.a(lib_a-findfp.o)
                              i:/development/arm/gnu tools arm embedded/5.4 2016q2/bin/../lib/gcc/arm-none-eabi/5.4.1/../../../../arm-none-eabi/lib/fpu\libc.a(lib_a-vfprintf.o) (__sinit)
i:/development/arm/gnu tools arm embedded/5.4 2016q2/bin/../lib/gcc/arm-none-eabi/5.4.1/../../../../arm-none-eabi/lib/fpu\libc.a(lib_a-freer.o)
                              i:/development/arm/gnu tools arm embedded/5.4 2016q2/bin/../lib/gcc/arm-none-eabi/5.4.1/../../../../arm-none-eabi/lib/fpu\libc.a(lib_a-malloc.o) (_free_r)
i:/development/arm/gnu tools arm embedded/5.4 2016q2/bin/../lib/gcc/arm-none-eabi/5.4.1/../../../../arm-none-eabi/lib/fpu\libc.a(lib_a-fwalk.o)
                              i:/development/arm/gnu tools arm embedded/5.4 2016q2/bin/../lib/gcc/arm-none-eabi/5.4.1/../../../../arm-none-eabi/lib/fpu\libc.a(lib_a-findfp.o) (_fwalk)
i:/development/arm/gnu tools arm embedded/5.4 2016q2/bin/../lib/gcc/arm-none-eabi/5.4.1/../../../../arm-none-eabi/lib/fpu\libc.a(lib_a-impure.o)
                              i:/development/arm/gnu tools arm embedded/5.4 2016q2/bin/../lib/gcc/arm-none-eabi/5.4.1/../../../../arm-none-eabi/lib/fpu\libc.a(lib_a-__atexit.o) (_global_impure_ptr)
i:/development/arm/gnu tools arm embedded/5.4 2016q2/bin/../lib/gcc/arm-none-eabi/5.4.1/../../../../arm-none-eabi/lib/fpu\libc.a(lib_a-locale.o)
                              i:/development/arm/gnu tools arm embedded/5.4 2016q2/bin/../lib/gcc/arm-none-eabi/5.4.1/../../../../arm-none-eabi/lib/fpu\libc.a(lib_a-svfprintf.o) (_localeconv_r)
i:/development/arm/gnu tools arm embedded/5.4 2016q2/bin/../lib/gcc/arm-none-eabi/5.4.1/../../../../arm-none-eabi/lib/fpu\libc.a(lib_a-makebuf.o)
                              i:/development/arm/gnu tools arm embedded/5.4 2016q2/bin/../lib/gcc/arm-none-eabi/5.4.1/../../../../arm-none-eabi/lib/fpu\libc.a(lib_a-wsetup.o) (__smakebuf_r)
i:/development/arm/gnu tools arm embedded/5.4 2016q2/bin/../lib/gcc/arm-none-eabi/5.4.1/../../../../arm-none-eabi/lib/fpu\libc.a(lib_a-memchr-stub.o)
                              i:/development/arm/gnu tools arm embedded/5.4 2016q2/bin/../lib/gcc/arm-none-eabi/5.4.1/../../../../arm-none-eabi/lib/fpu\libc.a(lib_a-svfprintf.o) (memchr)
i:/development/arm/gnu tools arm embedded/5.4 2016q2/bin/../lib/gcc/arm-none-eabi/5.4.1/../../../../arm-none-eabi/lib/fpu\libc.a(lib_a-mprec.o)
                              i:/development/arm/gnu tools arm embedded/5.4 2016q2/bin/../lib/gcc/arm-none-eabi/5.4.1/../../../../arm-none-eabi/lib/fpu\libc.a(lib_a-dtoa.o) (_Balloc)
i:/development/arm/gnu tools arm embedded/5.4 2016q2/bin/../lib/gcc/arm-none-eabi/5.4.1/../../../../arm-none-eabi/lib/fpu\libc.a(lib_a-stdio.o)
                              i:/development/arm/gnu tools arm embedded/5.4 2016q2/bin/../lib/gcc/arm-none-eabi/5.4.1/../../../../arm-none-eabi/lib/fpu\libc.a(lib_a-findfp.o) (__sread)
i:/development/arm/gnu tools arm embedded/5.4 2016q2/bin/../lib/gcc/arm-none-eabi/5.4.1/../../../../arm-none-eabi/lib/fpu\libc.a(lib_a-strchr.o)
                              i:/development/arm/gnu tools arm embedded/5.4 2016q2/bin/../lib/gcc/arm-none-eabi/5.4.1/../../../../arm-none-eabi/lib/fpu\libc.a(lib_a-strrchr.o) (strchr)
i:/development/arm/gnu tools arm embedded/5.4 2016q2/bin/../lib/gcc/arm-none-eabi/5.4.1/../../../../arm-none-eabi/lib/fpu\libc.a(lib_a-strcmp.o)
                              i:/development/arm/gnu tools arm embedded/5.4 2016q2/bin/../lib/gcc/arm-none-eabi/5.4.1/../../../../arm-none-eabi/lib/fpu\libc.a(lib_a-locale.o) (strcmp)
i:/development/arm/gnu tools arm embedded/5.4 2016q2/bin/../lib/gcc/arm-none-eabi/5.4.1/../../../../arm-none-eabi/lib/fpu\libc.a(lib_a-svfiprintf.o)
                              i:/development/arm/gnu tools arm embedded/5.4 2016q2/bin/../lib/gcc/arm-none-eabi/5.4.1/../../../../arm-none-eabi/lib/fpu\libc.a(lib_a-svfprintf.o) (__ssprint_r)
i:/development/arm/gnu tools arm embedded/5.4 2016q2/bin/../lib/gcc/arm-none-eabi/5.4.1/../../../../arm-none-eabi/lib/fpu\libc.a(lib_a-vfiprintf.o)
                              i:/development/arm/gnu tools arm embedded/5.4 2016q2/bin/../lib/gcc/arm-none-eabi/5.4.1/../../../../arm-none-eabi/lib/fpu\libc.a(lib_a-vfprintf.o) (__sprint_r)
i:/development/arm/gnu tools arm embedded/5.4 2016q2/bin/../lib/gcc/arm-none-eabi/5.4.1/../../../../arm-none-eabi/lib/fpu\libc.a(lib_a-writer.o)
                              i:/development/arm/gnu tools arm embedded/5.4 2016q2/bin/../lib/gcc/arm-none-eabi/5.4.1/../../../../arm-none-eabi/lib/fpu\libc.a(lib_a-stdio.o) (_write_r)
i:/development/arm/gnu tools arm embedded/5.4 2016q2/bin/../lib/gcc/arm-none-eabi/5.4.1/../../../../arm-none-eabi/lib/fpu\libc.a(lib_a-callocr.o)
                              i:/development/arm/gnu tools arm embedded/5.4 2016q2/bin/../lib/gcc/arm-none-eabi/5.4.1/../../../../arm-none-eabi/lib/fpu\libc.a(lib_a-mprec.o) (_calloc_r)
i:/development/arm/gnu tools arm embedded/5.4 2016q2/bin/../lib/gcc/arm-none-eabi/5.4.1/../../../../arm-none-eabi/lib/fpu\libc.a(lib_a-closer.o)
                              i:/development/arm/gnu tools arm embedded/5.4 2016q2/bin/../lib/gcc/arm-none-eabi/5.4.1/../../../../arm-none-eabi/lib/fpu\libc.a(lib_a-stdio.o) (_close_r)
i:/development/arm/gnu tools arm embedded/5.4 2016q2/bin/../lib/gcc/arm-none-eabi/5.4.1/../../../../arm-none-eabi/lib/fpu\libc.a(lib_a-fclose.o)
                              i:/development/arm/gnu tools arm embedded/5.4 2016q2/bin/../lib/gcc/arm-none-eabi/5.4.1/../../../../arm-none-eabi/lib/fpu\libc.a(lib_a-findfp.o) (_fclose_r)
i:/development/arm/gnu tools arm embedded/5.4 2016q2/bin/../lib/gcc/arm-none-eabi/5.4.1/../../../../arm-none-eabi/lib/fpu\libc.a(lib_a-fputwc.o)
                              i:/development/arm/gnu tools arm embedded/5.4 2016q2/bin/../lib/gcc/arm-none-eabi/5.4.1/../../../../arm-none-eabi/lib/fpu\libc.a(lib_a-vfiprintf.o) (_fputwc_r)
i:/development/arm/gnu tools arm embedded/5.4 2016q2/bin/../lib/gcc/arm-none-eabi/5.4.1/../../../../arm-none-eabi/lib/fpu\libc.a(lib_a-fstatr.o)
                              i:/development/arm/gnu tools arm embedded/5.4 2016q2/bin/../lib/gcc/arm-none-eabi/5.4.1/../../../../arm-none-eabi/lib/fpu\libc.a(lib_a-makebuf.o) (_fstat_r)
i:/development/arm/gnu tools arm embedded/5.4 2016q2/bin/../lib/gcc/arm-none-eabi/5.4.1/../../../../arm-none-eabi/lib/fpu\libc.a(lib_a-fvwrite.o)
                              i:/development/arm/gnu tools arm embedded/5.4 2016q2/bin/../lib/gcc/arm-none-eabi/5.4.1/../../../../arm-none-eabi/lib/fpu\libc.a(lib_a-vfiprintf.o) (__sfvwrite_r)
i:/development/arm/gnu tools arm embedded/5.4 2016q2/bin/../lib/gcc/arm-none-eabi/5.4.1/../../../../arm-none-eabi/lib/fpu\libc.a(lib_a-isattyr.o)
                              i:/development/arm/gnu tools arm embedded/5.4 2016q2/bin/../lib/gcc/arm-none-eabi/5.4.1/../../../../arm-none-eabi/lib/fpu\libc.a(lib_a-makebuf.o) (_isatty_r)
i:/development/arm/gnu tools arm embedded/5.4 2016q2/bin/../lib/gcc/arm-none-eabi/5.4.1/../../../../arm-none-eabi/lib/fpu\libc.a(lib_a-lseekr.o)
                              i:/development/arm/gnu tools arm embedded/5.4 2016q2/bin/../lib/gcc/arm-none-eabi/5.4.1/../../../../arm-none-eabi/lib/fpu\libc.a(lib_a-stdio.o) (_lseek_r)
i:/development/arm/gnu tools arm embedded/5.4 2016q2/bin/../lib/gcc/arm-none-eabi/5.4.1/../../../../arm-none-eabi/lib/fpu\libc.a(lib_a-memmove.o)
                              i:/development/arm/gnu tools arm embedded/5.4 2016q2/bin/../lib/gcc/arm-none-eabi/5.4.1/../../../../arm-none-eabi/lib/fpu\libc.a(lib_a-svfiprintf.o) (memmove)
i:/development/arm/gnu tools arm embedded/5.4 2016q2/bin/../lib/gcc/arm-none-eabi/5.4.1/../../../../arm-none-eabi/lib/fpu\libc.a(lib_a-readr.o)
                              i:/development/arm/gnu tools arm embedded/5.4 2016q2/bin/../lib/gcc/arm-none-eabi/5.4.1/../../../../arm-none-eabi/lib/fpu\libc.a(lib_a-stdio.o) (_read_r)
i:/development/arm/gnu tools arm embedded/5.4 2016q2/bin/../lib/gcc/arm-none-eabi/5.4.1/../../../../arm-none-eabi/lib/fpu\libc.a(lib_a-reallocr.o)
                              i:/development/arm/gnu tools arm embedded/5.4 2016q2/bin/../lib/gcc/arm-none-eabi/5.4.1/../../../../arm-none-eabi/lib/fpu\libc.a(lib_a-svfiprintf.o) (_realloc_r)
i:/development/arm/gnu tools arm embedded/5.4 2016q2/bin/../lib/gcc/arm-none-eabi/5.4.1/../../../../arm-none-eabi/lib/fpu\libc.a(lib_a-wbuf.o)
                              i:/development/arm/gnu tools arm embedded/5.4 2016q2/bin/../lib/gcc/arm-none-eabi/5.4.1/../../../../arm-none-eabi/lib/fpu\libc.a(lib_a-fputwc.o) (__swbuf_r)
i:/development/arm/gnu tools arm embedded/5.4 2016q2/bin/../lib/gcc/arm-none-eabi/5.4.1/../../../../arm-none-eabi/lib/fpu\libc.a(lib_a-wcrtomb.o)
                              i:/development/arm/gnu tools arm embedded/5.4 2016q2/bin/../lib/gcc/arm-none-eabi/5.4.1/../../../../arm-none-eabi/lib/fpu\libc.a(lib_a-fputwc.o) (_wcrtomb_r)
i:/development/arm/gnu tools arm embedded/5.4 2016q2/bin/../lib/gcc/arm-none-eabi/5.4.1/../../../../arm-none-eabi/lib/fpu\libc.a(lib_a-wctomb_r.o)
                              i:/development/arm/gnu tools arm embedded/5.4 2016q2/bin/../lib/gcc/arm-none-eabi/5.4.1/../../../../arm-none-eabi/lib/fpu\libc.a(lib_a-wcrtomb.o) (__wctomb)
i:/development/arm/gnu tools arm embedded/5.4 2016q2/bin/../lib/gcc/arm-none-eabi/5.4.1/fpu\libgcc.a(_udivsi3.o)
                              i:/development/arm/gnu tools arm embedded/5.4 2016q2/bin/../lib/gcc/arm-none-eabi/5.4.1/../../../../arm-none-eabi/lib/fpu\libc.a(lib_a-dtoa.o) (__aeabi_uidiv)
i:/development/arm/gnu tools arm embedded/5.4 2016q2/bin/../lib/gcc/arm-none-eabi/5.4.1/fpu\libgcc.a(_divsi3.o)
                              i:/development/arm/gnu tools arm embedded/5.4 2016q2/bin/../lib/gcc/arm-none-eabi/5.4.1/../../../../arm-none-eabi/lib/fpu\libc.a(lib_a-fvwrite.o) (__aeabi_idiv)

Allocating common symbols
Common symbol       size              file

PageTable2          0x800             src/cache.o
errno               0x4               i:/development/arm/gnu tools arm embedded/5.4 2016q2/bin/../lib/gcc/arm-none-eabi/5.4.1/../../../../arm-none-eabi/lib/fpu\libc.a(lib_a-reent.o)
PageTable           0x4000            src/cache.o

Discarded input sections

 .group         0x00000000        0x8 src/main.o
 .group         0x00000000        0xc src/Keyboard.o
 .group         0x00000000        0xc src/Keyboard.o
 .group         0x00000000        0x8 src/Keyboard.o
 .group         0x00000000        0x8 src/Keyboard.o
 .bss._ZN9SingletonI8KeyboardE11m_pInstanceE
                0x00000000        0x4 src/Keyboard.o

Memory Configuration

Name             Origin             Length             Attributes
*default*        0x00000000         0xffffffff

Linker script and memory map

LOAD i:/development/arm/gnu tools arm embedded/5.4 2016q2/bin/../lib/gcc/arm-none-eabi/5.4.1/../../../../arm-none-eabi/lib/fpu\libm.a
LOAD i:/development/arm/gnu tools arm embedded/5.4 2016q2/bin/../lib/gcc/arm-none-eabi/5.4.1/../../../../arm-none-eabi/lib/fpu\libm.a
LOAD src/armc-start.o
LOAD src/armc-cstartup.o
LOAD src/armc-cstubs.o
LOAD src/armc-cppstubs.o
LOAD src/exception.o
LOAD src/main.o
LOAD src/rpi-aux.o
LOAD src/rpi-i2c.o
LOAD src/rpi-mailbox-interface.o
LOAD src/rpi-mailbox.o
LOAD src/rpi-gpio.o
LOAD src/rpi-interrupts.o
LOAD src/cache.o
LOAD src/ff.o
LOAD src/interrupt.o
LOAD src/Keyboard.o
LOAD src/emmc.o
LOAD src/diskio.o
LOAD src/vga.o
LOAD src/terminal.o
LOAD src/timer.o
LOAD src/font_data.o
LOAD src/basic.o
LOAD src/linkedlist.o
LOAD uspi/libuspi.a
START GROUP
LOAD i:/development/arm/gnu tools arm embedded/5.4 2016q2/bin/../lib/gcc/arm-none-eabi/5.4.1/fpu\libgcc.a
LOAD i:/development/arm/gnu tools arm embedded/5.4 2016q2/bin/../lib/gcc/arm-none-eabi/5.4.1/../../../../arm-none-eabi/lib/fpu\libc.a
END GROUP
                [!provide]                PROVIDE (__executable_start, 0x1f00000)
                0x01f00000                . = 0x1f00000

.interp
 *(.interp)

.note.gnu.build-id
 *(.note.gnu.build-id)

.hash
 *(.hash)

.gnu.hash
 *(.gnu.hash)

.dynsym
 *(.dynsym)

.dynstr
 *(.dynstr)

.gnu.version
 *(.gnu.version)

.gnu.version_d
 *(.gnu.version_d)

.gnu.version_r
 *(.gnu.version_r)

.rel.init
 *(.rel.init)

.rela.init
 *(.rela.init)

.rel.text
 *(.rel.text .rel.text.* .rel.gnu.linkonce.t.*)

.rela.text
 *(.rela.text .rela.text.* .rela.gnu.linkonce.t.*)

.rel.fini
 *(.rel.fini)

.rela.fini
 *(.rela.fini)

.rel.rodata
 *(.rel.rodata .rel.rodata.* .rel.gnu.linkonce.r.*)

.rela.rodata
 *(.rela.rodata .rela.rodata.* .rela.gnu.linkonce.r.*)

.rel.data.rel.ro
 *(.rel.data.rel.ro* .rel.gnu.linkonce.d.rel.ro.*)

.rela.data.rel.ro
 *(.rela.data.rel.ro* .rela.gnu.linkonce.d.rel.ro.*)

.rel.data
 *(.rel.data .rel.data.* .rel.gnu.linkonce.d.*)

.rela.data
 *(.rela.data .rela.data.* .rela.gnu.linkonce.d.*)

.rel.tdata
 *(.rel.tdata .rel.tdata.* .rel.gnu.linkonce.td.*)

.rela.tdata
 *(.rela.tdata .rela.tdata.* .rela.gnu.linkonce.td.*)

.rel.tbss
 *(.rel.tbss .rel.tbss.* .rel.gnu.linkonce.tb.*)

.rela.tbss
 *(.rela.tbss .rela.tbss.* .rela.gnu.linkonce.tb.*)

.rel.ctors
 *(.rel.ctors)

.rela.ctors
 *(.rela.ctors)

.rel.dtors
 *(.rel.dtors)

.rela.dtors
 *(.rela.dtors)

.rel.got
 *(.rel.got)

.rela.got
 *(.rela.got)

.rel.bss
 *(.rel.bss .rel.bss.* .rel.gnu.linkonce.b.*)

.rela.bss
 *(.rela.bss .rela.bss.* .rela.gnu.linkonce.b.*)

.rel.iplt       0x01f00000        0x0
                [!provide]                PROVIDE (__rel_iplt_start, .)
 *(.rel.iplt)
 .rel.iplt      0x01f00000        0x0 src/armc-start.o
                [!provide]                PROVIDE (__rel_iplt_end, .)

.rela.iplt      0x01f00000        0x0
                [!provide]                PROVIDE (__rela_iplt_start, .)
 *(.rela.iplt)
                [!provide]                PROVIDE (__rela_iplt_end, .)

.rel.plt
 *(.rel.plt)

.rela.plt
 *(.rela.plt)

.init
 *(.init)

.plt
 *(.plt)

.iplt           0x01f00000        0x0
 *(.iplt)
 .iplt          0x01f00000        0x0 src/armc-start.o

.text           0x01f00000    0x341f0
 *(.text.startup .text.startup.*)
 .text.startup  0x01f00000       0x40 src/armc-start.o
                0x01f00000                _start
 .text.startup  0x01f00040       0x30 src/main.o
 *(.text.unlikely .text.*_unlikely)
 .text.unlikely
                0x01f00070      0x14c src/ff.o
 *(.text.exit .text.exit.*)
 *(.text.hot .text.hot.*)
 *(.text .stub .text.* .gnu.linkonce.t.*)
 .text          0x01f001bc        0x0 src/armc-start.o
 .text._reset_  0x01f001bc       0xc0 src/armc-start.o
 .text._get_stack_pointer
                0x01f0027c        0x8 src/armc-start.o
                0x01f0027c                _get_stack_pointer
 .text._get_cpsr
                0x01f00284        0x8 src/armc-start.o
                0x01f00284                _get_cpsr
 .text._enable_interrupts
                0x01f0028c       0x10 src/armc-start.o
                0x01f0028c                _enable_interrupts
 .text._disable_interrupts
                0x01f0029c       0x10 src/armc-start.o
                0x01f0029c                _disable_interrupts
 .text._undefined_instruction_handler_
                0x01f002ac       0x14 src/armc-start.o
 .text._prefetch_abort_handler_
                0x01f002c0       0x14 src/armc-start.o
 .text._data_abort_handler_
                0x01f002d4       0x14 src/armc-start.o
 .text._swi_handler_
                0x01f002e8       0x14 src/armc-start.o
 .text._enable_unaligned_access
                0x01f002fc       0x14 src/armc-start.o
                0x01f002fc                _enable_unaligned_access
 .text._enable_l1_cache
                0x01f00310       0x18 src/armc-start.o
                0x01f00310                _enable_l1_cache
 .text._invalidate_icache
                0x01f00328        0xc src/armc-start.o
                0x01f00328                _invalidate_icache
 .text._invalidate_dcache
                0x01f00334        0xc src/armc-start.o
                0x01f00334                _invalidate_dcache
 .text._clean_invalidate_dcache
                0x01f00340        0xc src/armc-start.o
                0x01f00340                _clean_invalidate_dcache
 .text._invalidate_dcache_mva
                0x01f0034c        0x8 src/armc-start.o
                0x01f0034c                _invalidate_dcache_mva
 .text._clean_invalidate_dcache_mva
                0x01f00354        0x8 src/armc-start.o
                0x01f00354                _clean_invalidate_dcache_mva
 .text._invalidate_dtlb
                0x01f0035c        0xc src/armc-start.o
                0x01f0035c                _invalidate_dtlb
 .text._invalidate_dtlb_mva
                0x01f00368        0x8 src/armc-start.o
                0x01f00368                _invalidate_dtlb_mva
 .text._data_memory_barrier
                0x01f00370       0xb0 src/armc-start.o
                0x01f00370                _data_memory_barrier
                0x01f00378                _init_core
                0x01f00408                _spin_core
                0x01f00410                _get_core
 .text._toggle_test_pin
                0x01f00420       0x28 src/armc-start.o
                0x01f00420                _toggle_test_pin
 .text          0x01f00448        0x0 src/armc-cstartup.o
 .text._init    0x01f00448        0x4 src/armc-cstartup.o
                0x01f00448                _init
 .text._cstartup
                0x01f0044c      0x174 src/armc-cstartup.o
                0x01f0044c                _cstartup
 .text          0x01f005c0        0x0 src/armc-cstubs.o
 .text._exit    0x01f005c0        0x4 src/armc-cstubs.o
                0x01f005c0                _exit
 .text._fini    0x01f005c4        0x4 src/armc-cstubs.o
                0x01f005c4                _fini
 .text._close   0x01f005c8        0x8 src/armc-cstubs.o
                0x01f005c8                _close
 .text.execve   0x01f005d0       0x18 src/armc-cstubs.o
                0x01f005d0                execve
 .text.fork     0x01f005e8       0x18 src/armc-cstubs.o
                0x01f005e8                fork
 .text._fstat   0x01f00600       0x10 src/armc-cstubs.o
                0x01f00600                _fstat
 .text.getpid   0x01f00610        0x8 src/armc-cstubs.o
                0x01f00610                getpid
 .text._getpid  0x01f00618        0x8 src/armc-cstubs.o
                0x01f00618                _getpid
 .text._isatty  0x01f00620        0x8 src/armc-cstubs.o
                0x01f00620                _isatty
 .text.kill     0x01f00628       0x18 src/armc-cstubs.o
                0x01f00628                kill
 .text._kill    0x01f00640       0x18 src/armc-cstubs.o
                0x01f00640                _kill
 .text.link     0x01f00658       0x18 src/armc-cstubs.o
                0x01f00658                link
 .text._lseek   0x01f00670        0x8 src/armc-cstubs.o
                0x01f00670                _lseek
 .text.open     0x01f00678        0x8 src/armc-cstubs.o
                0x01f00678                open
 .text._read    0x01f00680        0x8 src/armc-cstubs.o
                0x01f00680                _read
 .text._sbrk    0x01f00688       0x2c src/armc-cstubs.o
                0x01f00688                _sbrk
 .text.stat     0x01f006b4       0x10 src/armc-cstubs.o
                0x01f006b4                stat
 .text.times    0x01f006c4        0x8 src/armc-cstubs.o
                0x01f006c4                times
 .text.unlink   0x01f006cc       0x18 src/armc-cstubs.o
                0x01f006cc                unlink
 .text.wait     0x01f006e4       0x18 src/armc-cstubs.o
                0x01f006e4                wait
 .text.outbyte  0x01f006fc        0x4 src/armc-cstubs.o
                0x01f006fc                outbyte
 .text._write   0x01f00700       0x2c src/armc-cstubs.o
                0x01f00700                _write
 .text          0x01f0072c       0x10 src/armc-cppstubs.o
                0x01f0072c                operator new(unsigned int)
                0x01f00730                operator delete(void*)
                0x01f00734                std::__throw_bad_alloc()
                0x01f00738                std::__throw_length_error(char const*)
 .text          0x01f0073c        0x0 src/exception.o
 .text.reboot_now
                0x01f0073c       0x24 src/exception.o
                0x01f0073c                reboot_now
 .text.dump_digit
                0x01f00760       0x14 src/exception.o
                0x01f00760                dump_digit
 .text.dump_hex
                0x01f00774       0x30 src/exception.o
                0x01f00774                dump_hex
 .text.dump_binary
                0x01f007a4       0x28 src/exception.o
                0x01f007a4                dump_binary
 .text.dump_string
                0x01f007cc       0x28 src/exception.o
                0x01f007cc                dump_string
 .text.dump_info
                0x01f007f4      0x464 src/exception.o
                0x01f007f4                dump_info
 .text.undefined_instruction_handler
                0x01f00c58       0x10 src/exception.o
                0x01f00c58                undefined_instruction_handler
 .text.prefetch_abort_handler
                0x01f00c68       0x10 src/exception.o
                0x01f00c68                prefetch_abort_handler
 .text.data_abort_handler
                0x01f00c78       0x10 src/exception.o
                0x01f00c78                data_abort_handler
 .text.swi_handler
                0x01f00c88       0x10 src/exception.o
                0x01f00c88                swi_handler
 .text          0x01f00c98      0x30c src/main.o
                0x01f00c98                LogWrite
                0x01f00cc8                GetMACAddress
                0x01f00d38                SetPowerStateOn
                0x01f00d8c                usDelay
                0x01f00dc0                MsDelay
                0x01f00dfc                StartKernelTimer
                0x01f00e00                CancelKernelTimer
                0x01f00e04                ConnectInterrupt
                0x01f00e08                get_fattime
                0x01f00e10                InitializeHardware()
                0x01f00e84                core0
                0x01f00ea4                kernel_main
                0x01f00f90                core1
                0x01f00f94                run_core
 .text          0x01f00fa4        0x0 src/rpi-aux.o
 .text.RPI_GetAux
                0x01f00fa4        0xc src/rpi-aux.o
                0x01f00fa4                RPI_GetAux
 .text.RPI_AuxMiniUartInit
                0x01f00fb0      0x17c src/rpi-aux.o
                0x01f00fb0                RPI_AuxMiniUartInit
 .text.RPI_AuxMiniUartWrite
                0x01f0112c       0x24 src/rpi-aux.o
                0x01f0112c                RPI_AuxMiniUartWrite
 .text.RPI_EnableUart
                0x01f01150       0x24 src/rpi-aux.o
                0x01f01150                RPI_EnableUart
 .text          0x01f01174        0x0 src/rpi-i2c.o
 .text.RPI_I2CSetClock
                0x01f01174       0x88 src/rpi-i2c.o
                0x01f01174                RPI_I2CSetClock
 .text.RPI_I2CInit
                0x01f011fc       0xd4 src/rpi-i2c.o
                0x01f011fc                RPI_I2CInit
 .text.RPI_I2CRead
                0x01f012d0      0x144 src/rpi-i2c.o
                0x01f012d0                RPI_I2CRead
 .text.RPI_I2CWrite
                0x01f01414      0x150 src/rpi-i2c.o
                0x01f01414                RPI_I2CWrite
 .text.RPI_I2CScan
                0x01f01564       0xb4 src/rpi-i2c.o
                0x01f01564                RPI_I2CScan
 .text          0x01f01618        0x0 src/rpi-mailbox-interface.o
 .text.RPI_PropertyInit
                0x01f01618       0x30 src/rpi-mailbox-interface.o
                0x01f01618                RPI_PropertyInit
 .text.RPI_PropertyAddTag
                0x01f01648      0x678 src/rpi-mailbox-interface.o
                0x01f01648                RPI_PropertyAddTag
 .text.RPI_PropertyProcess
                0x01f01cc0       0x44 src/rpi-mailbox-interface.o
                0x01f01cc0                RPI_PropertyProcess
 .text.RPI_PropertyProcessNoCheck
                0x01f01d04       0x34 src/rpi-mailbox-interface.o
                0x01f01d04                RPI_PropertyProcessNoCheck
 .text.RPI_PropertyGet
                0x01f01d38       0x94 src/rpi-mailbox-interface.o
                0x01f01d38                RPI_PropertyGet
 .text          0x01f01dcc        0x0 src/rpi-mailbox.o
 .text.RPI_Mailbox0Write
                0x01f01dcc       0x2c src/rpi-mailbox.o
                0x01f01dcc                RPI_Mailbox0Write
 .text.RPI_Mailbox0Read
                0x01f01df8       0x40 src/rpi-mailbox.o
                0x01f01df8                RPI_Mailbox0Read
 .text.RPI_Mailbox0Flush
                0x01f01e38       0x34 src/rpi-mailbox.o
                0x01f01e38                RPI_Mailbox0Flush
 .text          0x01f01e6c        0x0 src/rpi-gpio.o
 .text.RPI_SetGpioPinFunction
                0x01f01e6c       0x70 src/rpi-gpio.o
                0x01f01e6c                RPI_SetGpioPinFunction
 .text.RPI_SetGpioOutput
                0x01f01edc       0x74 src/rpi-gpio.o
                0x01f01edc                RPI_SetGpioOutput
 .text.RPI_SetGpioInput
                0x01f01f50       0x6c src/rpi-gpio.o
                0x01f01f50                RPI_SetGpioInput
 .text.RPI_GetGpioValue
                0x01f01fbc       0x70 src/rpi-gpio.o
                0x01f01fbc                RPI_GetGpioValue
 .text.RPI_ToggleGpio
                0x01f0202c       0xb8 src/rpi-gpio.o
                0x01f0202c                RPI_ToggleGpio
 .text.RPI_SetGpioHi
                0x01f020e4       0x4c src/rpi-gpio.o
                0x01f020e4                RPI_SetGpioHi
 .text.RPI_SetGpioLo
                0x01f02130       0x4c src/rpi-gpio.o
                0x01f02130                RPI_SetGpioLo
 .text.RPI_SetGpioValue
                0x01f0217c       0xb0 src/rpi-gpio.o
                0x01f0217c                RPI_SetGpioValue
 .text.EnableGpioDetect
                0x01f0222c      0x1d8 src/rpi-gpio.o
                0x01f0222c                EnableGpioDetect
 .text.DisableGpioDetect
                0x01f02404      0x1dc src/rpi-gpio.o
                0x01f02404                DisableGpioDetect
 .text.ClearGpioEvent
                0x01f025e0       0x30 src/rpi-gpio.o
                0x01f025e0                ClearGpioEvent
 .text.SetACTLed
                0x01f02610       0x78 src/rpi-gpio.o
                0x01f02610                SetACTLed
 .text.RPI_TouchInit
                0x01f02688       0x44 src/rpi-gpio.o
                0x01f02688                RPI_TouchInit
 .text.RPI_UpdateTouch
                0x01f026cc       0x18 src/rpi-gpio.o
                0x01f026cc                RPI_UpdateTouch
 .text.RPI_GpioVirtGetAddress
                0x01f026e4       0x10 src/rpi-gpio.o
                0x01f026e4                RPI_GpioVirtGetAddress
 .text.RPI_GpioVirtInit
                0x01f026f4       0x44 src/rpi-gpio.o
                0x01f026f4                RPI_GpioVirtInit
 .text.RPI_GpioVirtSetLed
                0x01f02738       0x78 src/rpi-gpio.o
                0x01f02738                RPI_GpioVirtSetLed
 .text          0x01f027b0        0x0 src/rpi-interrupts.o
 .text.RPI_GetIrqController
                0x01f027b0        0xc src/rpi-interrupts.o
                0x01f027b0                RPI_GetIrqController
 .text          0x01f027bc        0x0 src/cache.o
 .text.InvalidateDataCache
                0x01f027bc       0xc8 src/cache.o
                0x01f027bc                InvalidateDataCache
 .text.CleanDataCache
                0x01f02884       0xc8 src/cache.o
                0x01f02884                CleanDataCache
 .text.map_4k_page
                0x01f0294c       0x2c src/cache.o
                0x01f0294c                map_4k_page
 .text.enable_MMU_and_IDCaches
                0x01f02978      0x1fc src/cache.o
                0x01f02978                enable_MMU_and_IDCaches
 .text          0x01f02b74     0xf434 src/ff.o
                0x01f0a808                f_mount
                0x01f0a8d4                f_open
                0x01f0b148                f_read
                0x01f0bb24                f_write
                0x01f0c514                f_sync
                0x01f0c968                f_close
                0x01f0cdfc                f_chdir
                0x01f0cf24                f_getcwd
                0x01f0d2ec                f_lseek
                0x01f0d6b4                f_opendir
                0x01f0d880                f_closedir
                0x01f0d8d8                f_readdir
                0x01f0da54                f_findnext
                0x01f0dbdc                f_findfirst
                0x01f0dda4                f_stat
                0x01f0de1c                f_getfree
                0x01f0e1b4                f_truncate
                0x01f0e334                f_unlink
                0x01f0e540                f_mkdir
                0x01f0f204                f_rename
                0x01f0f624                f_chmod
                0x01f0f6f0                f_utime
                0x01f0f7e0                f_gets
                0x01f0f9dc                f_putc
                0x01f10390                f_puts
                0x01f10e68                f_printf
                0x01f11fa0                ff_convert
                0x01f11fa4                ff_wtoupper
 .text          0x01f11fa8        0x0 src/interrupt.o
 .text.InterruptSystemInitialize
                0x01f11fa8       0x4c src/interrupt.o
                0x01f11fa8                InterruptSystemInitialize
 .text.InterruptSystemConnectIRQ
                0x01f11ff4       0x5c src/interrupt.o
                0x01f11ff4                InterruptSystemConnectIRQ
 .text.InterruptSystemDisconnectIRQ
                0x01f12050       0x60 src/interrupt.o
                0x01f12050                InterruptSystemDisconnectIRQ
 .text.InterruptSystemEnableIRQ
                0x01f120b0       0x44 src/interrupt.o
                0x01f120b0                InterruptSystemEnableIRQ
 .text.InterruptSystemDisableIRQ
                0x01f120f4       0x44 src/interrupt.o
                0x01f120f4                InterruptSystemDisableIRQ
 .text.InterruptHandler
                0x01f12138      0x160 src/interrupt.o
                0x01f12138                InterruptHandler
 .text          0x01f12298      0x838 src/Keyboard.o
                0x01f12298                Keyboard::USBKeyboardDeviceTimerHandler(unsigned int, void*, void*)
                0x01f12420                Keyboard::KeyPressedHandlerRaw(TUSBKeyboardDevice*, unsigned char, unsigned char const*)
                0x01f127b8                Keyboard::Keyboard()
                0x01f127b8                Keyboard::Keyboard()
                0x01f12840                Keyboard::GetChar()
 .text._ZN9SingletonI8KeyboardED2Ev
                0x01f12ad0        0x4 src/Keyboard.o
                0x01f12ad0                Singleton<Keyboard>::~Singleton()
                0x01f12ad0                Singleton<Keyboard>::~Singleton()
 .text._ZN8KeyboardD2Ev
                0x01f12ad4        0x4 src/Keyboard.o
                0x01f12ad4                Keyboard::~Keyboard()
                0x01f12ad4                Keyboard::~Keyboard()
 .text._ZN8KeyboardD0Ev
                0x01f12ad8       0x14 src/Keyboard.o
                0x01f12ad8                Keyboard::~Keyboard()
 .text._ZN9SingletonI8KeyboardED0Ev
                0x01f12aec       0x14 src/Keyboard.o
                0x01f12aec                Singleton<Keyboard>::~Singleton()
 .text          0x01f12b00     0x1aec src/emmc.o
                0x01f12b00                CEMMCDevice::CEMMCDevice()
                0x01f12b00                CEMMCDevice::CEMMCDevice()
                0x01f12b14                CEMMCDevice::~CEMMCDevice()
                0x01f12b14                CEMMCDevice::~CEMMCDevice()
                0x01f12b18                CEMMCDevice::Seek(unsigned long long)
                0x01f12b28                CEMMCDevice::PowerOn()
                0x01f12b70                CEMMCDevice::PowerOff()
                0x01f12b88                CEMMCDevice::GetClockDivider(unsigned int, unsigned int)
                0x01f12c2c                CEMMCDevice::SwitchClockRate(unsigned int, unsigned int)
                0x01f12dc4                CEMMCDevice::ResetCmd()
                0x01f12e3c                CEMMCDevice::ResetDat()
                0x01f12eb4                CEMMCDevice::IssueCommandInt(unsigned int, unsigned int, int)
                0x01f131ac                CEMMCDevice::HandleCardInterrupt()
                0x01f131d0                CEMMCDevice::HandleInterrupts()
                0x01f13420                CEMMCDevice::IssueCommand(unsigned int, unsigned int, int)
                0x01f134fc                CEMMCDevice::CardReset()
                0x01f13e08                CEMMCDevice::Initialize()
                0x01f13e70                CEMMCDevice::EnsureDataMode()
                0x01f1408c                CEMMCDevice::Read(void*, unsigned int)
                0x01f141ac                CEMMCDevice::Write(void const*, unsigned int)
                0x01f142cc                CEMMCDevice::DoDataCommand(int, unsigned char*, unsigned int, unsigned int)
                0x01f143a8                CEMMCDevice::DoRead(unsigned char*, unsigned int, unsigned int)
                0x01f14484                CEMMCDevice::DoWrite(unsigned char*, unsigned int, unsigned int)
                0x01f14560                CEMMCDevice::TimeoutWait(unsigned int, unsigned int, int, unsigned int)
 .text          0x01f145ec      0x158 src/diskio.o
                0x01f145ec                disk_setEMM
                0x01f145fc                sd_card_init(block_device**)
                0x01f14604                sd_read(unsigned char*, unsigned int, unsigned long)
                0x01f14620                sd_write(unsigned char*, unsigned int, unsigned long)
                0x01f1463c                disk_status
                0x01f14644                disk_initialize
                0x01f1464c                disk_read
                0x01f146c4                disk_write
                0x01f1473c                disk_ioctl
 .text          0x01f14744        0x0 src/vga.o
 .text.vga_plotpixel32
                0x01f14744       0x20 src/vga.o
                0x01f14744                vga_plotpixel32
 .text.vga_plotpixel24
                0x01f14764       0x44 src/vga.o
                0x01f14764                vga_plotpixel24
 .text.vga_plotpixel16
                0x01f147a8       0x3c src/vga.o
                0x01f147a8                vga_plotpixel16
 .text.vga_plotpixel8
                0x01f147e4       0x20 src/vga.o
                0x01f147e4                vga_plotpixel8
 .text.vga_init
                0x01f14804      0x1d8 src/vga.o
                0x01f14804                vga_init
 .text.vga_release
                0x01f149dc       0x30 src/vga.o
                0x01f149dc                vga_release
 .text.vga_setforecolor
                0x01f14a0c       0x10 src/vga.o
                0x01f14a0c                vga_setforecolor
 .text.vga_setbackcolor
                0x01f14a1c       0x10 src/vga.o
                0x01f14a1c                vga_setbackcolor
 .text.vga_cursor_on
                0x01f14a2c        0x4 src/vga.o
                0x01f14a2c                vga_cursor_on
 .text.vga_cursor_off
                0x01f14a30        0x4 src/vga.o
                0x01f14a30                vga_cursor_off
 .text.vga_plotpixel
                0x01f14a34       0x68 src/vga.o
                0x01f14a34                vga_plotpixel
 .text.vga_clear
                0x01f14a9c       0xb8 src/vga.o
                0x01f14a9c                vga_clear
 .text.vga_swapcolors
                0x01f14b54       0x24 src/vga.o
                0x01f14b54                vga_swapcolors
 .text.vga_cleararea
                0x01f14b78       0xc4 src/vga.o
                0x01f14b78                vga_cleararea
 .text.vga_scroll
                0x01f14c3c      0x148 src/vga.o
                0x01f14c3c                vga_scroll
 .text.vga_drawchar
                0x01f14d84      0x398 src/vga.o
                0x01f14d84                vga_drawchar
 .text.vga_drawtext
                0x01f1511c      0x47c src/vga.o
                0x01f1511c                vga_drawtext
 .text.vga_drawcursor
                0x01f15598       0xb8 src/vga.o
                0x01f15598                vga_drawcursor
 .text.vga_erasecursor
                0x01f15650       0xc8 src/vga.o
                0x01f15650                vga_erasecursor
 .text.vga_drawline
                0x01f15718       0xdc src/vga.o
                0x01f15718                vga_drawline
 .text.vga_drawlinev
                0x01f157f4       0x5c src/vga.o
                0x01f157f4                vga_drawlinev
 .text.vga_drawrect
                0x01f15850      0x2e0 src/vga.o
                0x01f15850                vga_drawrect
 .text.vga_drawcircle
                0x01f15b30      0x390 src/vga.o
                0x01f15b30                vga_drawcircle
 .text.vga_cliprect
                0x01f15ec0        0x4 src/vga.o
                0x01f15ec0                vga_cliprect
 .text          0x01f15ec4     0x1204 src/terminal.o
                0x01f15ec4                term_cursorblink_handler
                0x01f15f94                term_init
                0x01f16084                term_clear
                0x01f160a4                term_putchar
                0x01f1647c                term_puts
                0x01f16898                term_printf
                0x01f16e10                term_getchar
                0x01f16e44                term_getcharat
                0x01f16e70                term_putcharat
                0x01f16eb0                term_rc2xy
                0x01f16ec4                term_scroll
                0x01f16f58                term_showcursor
                0x01f16fc8                term_hidecursor
                0x01f17010                term_toggle_cursor
 .text          0x01f170c8        0x0 src/timer.o
 .text.TimerInterruptHandler
                0x01f170c8       0xd0 src/timer.o
 .text.TimerSystemInitialize
                0x01f17198       0x68 src/timer.o
                0x01f17198                TimerSystemInitialize
 .text.TimerStartKernelTimer
                0x01f17200       0x6c src/timer.o
                0x01f17200                TimerStartKernelTimer
 .text.TimerCancelKernelTimer
                0x01f1726c       0x18 src/timer.o
                0x01f1726c                TimerCancelKernelTimer
 .text          0x01f17284        0x0 src/font_data.o
 .text          0x01f17284     0x3d58 src/basic.o
                0x01f17284                exec_cmd_end
                0x01f17290                exec_cmd_then
                0x01f17294                exec_cmd_rem
                0x01f17298                exec_init
                0x01f1744c                exec_cmd_dir
                0x01f174f0                exec_cmd_list
                0x01f17578                exec_cmd_load
                0x01f1799c                exec_cmd_new
                0x01f17a00                exec_cmd_save
                0x01f17d30                var_clear_all
                0x01f17d80                var_add_update_int
                0x01f17eac                var_add_update_float
                0x01f17fe4                exec_expr
                0x01f187ec                exec_cmd_dim
                0x01f188f8                exec_cmd_goto
                0x01f18934                exec_cmd_if
                0x01f189fc                exec_cmd_print
                0x01f18bf0                exec_cmd_gosub
                0x01f18ca0                exec_cmd_input
                0x01f194b4                exec_cmd_let
                0x01f19840                exec_line
                0x01f19bc4                get_symbol
                0x01f19c78                get_int
                0x01f19ce0                get_float
                0x01f19d8c                ignore_space
                0x01f19dcc                to_uppercase
                0x01f19e38                isemptyline
                0x01f19eb0                compare
                0x01f19f4c                clear
                0x01f1a0c4                length
                0x01f1a0ec                join
                0x01f1a10c                get_input
                0x01f1a160                next_statement
                0x01f1a1bc                tokenize
                0x01f1a6ec                exec_program
                0x01f1a850                basic_main
                0x01f1af2c                exec_cmd_return
 .text          0x01f1afdc      0x268 src/linkedlist.o
                0x01f1afdc                ll_gethead
                0x01f1afec                ll_insertFirst
                0x01f1b020                ll_deleteFirst
                0x01f1b04c                ll_isEmpty
                0x01f1b064                ll_length
                0x01f1b098                ll_find
                0x01f1b0d0                ll_delete
                0x01f1b158                ll_sort
                0x01f1b210                ll_reverse
 .text          0x01f1b244        0x0 uspi/libuspi.a(uspilibrary.o)
 .text.USPiInitialize
                0x01f1b244      0x214 uspi/libuspi.a(uspilibrary.o)
                0x01f1b244                USPiInitialize
 .text.USPiKeyboardAvailable
                0x01f1b458       0x1c uspi/libuspi.a(uspilibrary.o)
                0x01f1b458                USPiKeyboardAvailable
 .text.USPiKeyboardRegisterKeyPressedHandler
                0x01f1b474       0x18 uspi/libuspi.a(uspilibrary.o)
                0x01f1b474                USPiKeyboardRegisterKeyPressedHandler
 .text.USPiKeyboardRegisterShutdownHandler
                0x01f1b48c       0x18 uspi/libuspi.a(uspilibrary.o)
                0x01f1b48c                USPiKeyboardRegisterShutdownHandler
 .text.USPiKeyboardRegisterKeyStatusHandlerRaw
                0x01f1b4a4       0x18 uspi/libuspi.a(uspilibrary.o)
                0x01f1b4a4                USPiKeyboardRegisterKeyStatusHandlerRaw
 .text.USPiMouseAvailable
                0x01f1b4bc       0x1c uspi/libuspi.a(uspilibrary.o)
                0x01f1b4bc                USPiMouseAvailable
 .text.USPiMouseRegisterStatusHandler
                0x01f1b4d8       0x18 uspi/libuspi.a(uspilibrary.o)
                0x01f1b4d8                USPiMouseRegisterStatusHandler
 .text.USPiMassStorageDeviceAvailable
                0x01f1b4f0       0x5c uspi/libuspi.a(uspilibrary.o)
                0x01f1b4f0                USPiMassStorageDeviceAvailable
 .text.USPiMassStorageDeviceRead
                0x01f1b54c       0x74 uspi/libuspi.a(uspilibrary.o)
                0x01f1b54c                USPiMassStorageDeviceRead
 .text.USPiMassStorageDeviceWrite
                0x01f1b5c0       0x74 uspi/libuspi.a(uspilibrary.o)
                0x01f1b5c0                USPiMassStorageDeviceWrite
 .text.USPiMassStorageDeviceGetCapacity
                0x01f1b634       0x30 uspi/libuspi.a(uspilibrary.o)
                0x01f1b634                USPiMassStorageDeviceGetCapacity
 .text.USPiEthernetAvailable
                0x01f1b664       0x30 uspi/libuspi.a(uspilibrary.o)
                0x01f1b664                USPiEthernetAvailable
 .text.USPiGetMACAddress
                0x01f1b694       0x44 uspi/libuspi.a(uspilibrary.o)
                0x01f1b694                USPiGetMACAddress
 .text.USPiSendFrame
                0x01f1b6d8       0x4c uspi/libuspi.a(uspilibrary.o)
                0x01f1b6d8                USPiSendFrame
 .text.USPiReceiveFrame
                0x01f1b724       0x4c uspi/libuspi.a(uspilibrary.o)
                0x01f1b724                USPiReceiveFrame
 .text.USPiGamePadAvailable
                0x01f1b770       0x5c uspi/libuspi.a(uspilibrary.o)
                0x01f1b770                USPiGamePadAvailable
 .text.USPiGamePadRegisterStatusHandler
                0x01f1b7cc       0x40 uspi/libuspi.a(uspilibrary.o)
                0x01f1b7cc                USPiGamePadRegisterStatusHandler
 .text.USPiGamePadGetStatus
                0x01f1b80c       0x44 uspi/libuspi.a(uspilibrary.o)
                0x01f1b80c                USPiGamePadGetStatus
 .text.USPiMIDIAvailable
                0x01f1b850       0x1c uspi/libuspi.a(uspilibrary.o)
                0x01f1b850                USPiMIDIAvailable
 .text.USPiMIDIRegisterPacketHandler
                0x01f1b86c       0x18 uspi/libuspi.a(uspilibrary.o)
                0x01f1b86c                USPiMIDIRegisterPacketHandler
 .text.USPiDeviceGetInformation
                0x01f1b884      0x15c uspi/libuspi.a(uspilibrary.o)
                0x01f1b884                USPiDeviceGetInformation
 .text          0x01f1b9e0        0x0 uspi/libuspi.a(dwhcidevice.o)
 .text.DWHCIDeviceCompletionRoutine
                0x01f1b9e0        0xc uspi/libuspi.a(dwhcidevice.o)
                0x01f1b9e0                DWHCIDeviceCompletionRoutine
 .text.DWHCIDevice
                0x01f1b9ec       0x68 uspi/libuspi.a(dwhcidevice.o)
                0x01f1b9ec                DWHCIDevice
 .text._DWHCIDevice
                0x01f1ba54        0x8 uspi/libuspi.a(dwhcidevice.o)
                0x01f1ba54                _DWHCIDevice
 .text.DWHCIDeviceInitHost
                0x01f1ba5c      0x314 uspi/libuspi.a(dwhcidevice.o)
                0x01f1ba5c                DWHCIDeviceInitHost
 .text.DWHCIDeviceEnableRootPort
                0x01f1bd70       0xcc uspi/libuspi.a(dwhcidevice.o)
                0x01f1bd70                DWHCIDeviceEnableRootPort
 .text.DWHCIDeviceReset
                0x01f1be3c       0xb8 uspi/libuspi.a(dwhcidevice.o)
                0x01f1be3c                DWHCIDeviceReset
 .text.DWHCIDeviceInitCore
                0x01f1bef4      0x1f4 uspi/libuspi.a(dwhcidevice.o)
                0x01f1bef4                DWHCIDeviceInitCore
 .text.DWHCIDeviceInitialize
                0x01f1c0e8      0x1f4 uspi/libuspi.a(dwhcidevice.o)
                0x01f1c0e8                DWHCIDeviceInitialize
 .text.DWHCIDeviceEnableGlobalInterrupts
                0x01f1c2dc       0x44 uspi/libuspi.a(dwhcidevice.o)
                0x01f1c2dc                DWHCIDeviceEnableGlobalInterrupts
 .text.DWHCIDeviceEnableCommonInterrupts
                0x01f1c320       0x38 uspi/libuspi.a(dwhcidevice.o)
                0x01f1c320                DWHCIDeviceEnableCommonInterrupts
 .text.DWHCIDeviceEnableHostInterrupts
                0x01f1c358       0x78 uspi/libuspi.a(dwhcidevice.o)
                0x01f1c358                DWHCIDeviceEnableHostInterrupts
 .text.DWHCIDeviceEnableChannelInterrupt
                0x01f1c3d0       0x54 uspi/libuspi.a(dwhcidevice.o)
                0x01f1c3d0                DWHCIDeviceEnableChannelInterrupt
 .text.DWHCIDeviceDisableChannelInterrupt
                0x01f1c424       0x54 uspi/libuspi.a(dwhcidevice.o)
                0x01f1c424                DWHCIDeviceDisableChannelInterrupt
 .text.DWHCIDeviceFlushTxFIFO
                0x01f1c478       0x94 uspi/libuspi.a(dwhcidevice.o)
                0x01f1c478                DWHCIDeviceFlushTxFIFO
 .text.DWHCIDeviceFlushRxFIFO
                0x01f1c50c       0x78 uspi/libuspi.a(dwhcidevice.o)
                0x01f1c50c                DWHCIDeviceFlushRxFIFO
 .text.DWHCIDeviceStartChannel
                0x01f1c584      0x37c uspi/libuspi.a(dwhcidevice.o)
                0x01f1c584                DWHCIDeviceStartChannel
 .text.DWHCIDeviceStartTransaction
                0x01f1c900       0xd0 uspi/libuspi.a(dwhcidevice.o)
                0x01f1c900                DWHCIDeviceStartTransaction
 .text.DWHCIDeviceTimerHandler
                0x01f1c9d0       0x68 uspi/libuspi.a(dwhcidevice.o)
                0x01f1c9d0                DWHCIDeviceTimerHandler
 .text.DWHCIDeviceTransferStageAsync
                0x01f1ca38      0x1ec uspi/libuspi.a(dwhcidevice.o)
                0x01f1ca38                DWHCIDeviceTransferStageAsync
 .text.DWHCIDeviceSubmitAsyncRequest
                0x01f1cc24       0x44 uspi/libuspi.a(dwhcidevice.o)
                0x01f1cc24                DWHCIDeviceSubmitAsyncRequest
 .text.DWHCIDeviceTransferStage
                0x01f1cc68       0x70 uspi/libuspi.a(dwhcidevice.o)
                0x01f1cc68                DWHCIDeviceTransferStage
 .text.DWHCIDeviceSubmitBlockingRequest
                0x01f1ccd8      0x360 uspi/libuspi.a(dwhcidevice.o)
                0x01f1ccd8                DWHCIDeviceSubmitBlockingRequest
 .text.DWHCIDeviceControlMessage
                0x01f1d038       0xa0 uspi/libuspi.a(dwhcidevice.o)
                0x01f1d038                DWHCIDeviceControlMessage
 .text.DWHCIDeviceTransfer
                0x01f1d0d8       0x58 uspi/libuspi.a(dwhcidevice.o)
                0x01f1d0d8                DWHCIDeviceTransfer
 .text.DWHCIDeviceGetDescriptor
                0x01f1d130       0xac uspi/libuspi.a(dwhcidevice.o)
                0x01f1d130                DWHCIDeviceGetDescriptor
 .text.DWHCIDeviceSetAddress
                0x01f1d1dc       0xc4 uspi/libuspi.a(dwhcidevice.o)
                0x01f1d1dc                DWHCIDeviceSetAddress
 .text.DWHCIDeviceSetConfiguration
                0x01f1d2a0       0xc4 uspi/libuspi.a(dwhcidevice.o)
                0x01f1d2a0                DWHCIDeviceSetConfiguration
 .text.DWHCIDeviceChannelInterruptHandler
                0x01f1d364      0x4d8 uspi/libuspi.a(dwhcidevice.o)
                0x01f1d364                DWHCIDeviceChannelInterruptHandler
 .text.DWHCIDeviceInterruptHandler
                0x01f1d83c       0xf8 uspi/libuspi.a(dwhcidevice.o)
                0x01f1d83c                DWHCIDeviceInterruptHandler
 .text.DWHCIDeviceAllocateChannel
                0x01f1d934       0x74 uspi/libuspi.a(dwhcidevice.o)
                0x01f1d934                DWHCIDeviceAllocateChannel
 .text.DWHCIDeviceFreeChannel
                0x01f1d9a8       0x28 uspi/libuspi.a(dwhcidevice.o)
                0x01f1d9a8                DWHCIDeviceFreeChannel
 .text.DWHCIDeviceWaitForBit
                0x01f1d9d0       0x5c uspi/libuspi.a(dwhcidevice.o)
                0x01f1d9d0                DWHCIDeviceWaitForBit
 .text.DWHCIDeviceGetPortSpeed
                0x01f1da2c       0x4c uspi/libuspi.a(dwhcidevice.o)
                0x01f1da2c                DWHCIDeviceGetPortSpeed
 .text.DWHCIDeviceOvercurrentDetected
                0x01f1da78       0x4c uspi/libuspi.a(dwhcidevice.o)
                0x01f1da78                DWHCIDeviceOvercurrentDetected
 .text.DWHCIDeviceDisableRootPort
                0x01f1dac4       0x44 uspi/libuspi.a(dwhcidevice.o)
                0x01f1dac4                DWHCIDeviceDisableRootPort
 .text          0x01f1db08        0x0 uspi/libuspi.a(dwhciregister.o)
 .text.DWHCIRegister
                0x01f1db08       0x10 uspi/libuspi.a(dwhciregister.o)
                0x01f1db08                DWHCIRegister
 .text.DWHCIRegister2
                0x01f1db18       0x10 uspi/libuspi.a(dwhciregister.o)
                0x01f1db18                DWHCIRegister2
 .text._DWHCIRegister
                0x01f1db28        0xc uspi/libuspi.a(dwhciregister.o)
                0x01f1db28                _DWHCIRegister
 .text.DWHCIRegisterRead
                0x01f1db34       0x1c uspi/libuspi.a(dwhciregister.o)
                0x01f1db34                DWHCIRegisterRead
 .text.DWHCIRegisterWrite
                0x01f1db50       0x10 uspi/libuspi.a(dwhciregister.o)
                0x01f1db50                DWHCIRegisterWrite
 .text.DWHCIRegisterGet
                0x01f1db60        0x8 uspi/libuspi.a(dwhciregister.o)
                0x01f1db60                DWHCIRegisterGet
 .text.DWHCIRegisterSet
                0x01f1db68       0x10 uspi/libuspi.a(dwhciregister.o)
                0x01f1db68                DWHCIRegisterSet
 .text.DWHCIRegisterIsSet
                0x01f1db78       0x14 uspi/libuspi.a(dwhciregister.o)
                0x01f1db78                DWHCIRegisterIsSet
 .text.DWHCIRegisterAnd
                0x01f1db8c       0x10 uspi/libuspi.a(dwhciregister.o)
                0x01f1db8c                DWHCIRegisterAnd
 .text.DWHCIRegisterOr
                0x01f1db9c       0x10 uspi/libuspi.a(dwhciregister.o)
                0x01f1db9c                DWHCIRegisterOr
 .text.DWHCIRegisterClearBit
                0x01f1dbac       0x14 uspi/libuspi.a(dwhciregister.o)
                0x01f1dbac                DWHCIRegisterClearBit
 .text.DWHCIRegisterSetBit
                0x01f1dbc0       0x14 uspi/libuspi.a(dwhciregister.o)
                0x01f1dbc0                DWHCIRegisterSetBit
 .text.DWHCIRegisterClearAll
                0x01f1dbd4       0x14 uspi/libuspi.a(dwhciregister.o)
                0x01f1dbd4                DWHCIRegisterClearAll
 .text.DWHCIRegisterSetAll
                0x01f1dbe8       0x14 uspi/libuspi.a(dwhciregister.o)
                0x01f1dbe8                DWHCIRegisterSetAll
 .text          0x01f1dbfc        0x0 uspi/libuspi.a(dwhcixferstagedata.o)
 .text.DWHCITransferStageData
                0x01f1dbfc      0x1d0 uspi/libuspi.a(dwhcixferstagedata.o)
                0x01f1dbfc                DWHCITransferStageData
 .text._DWHCITransferStageData
                0x01f1ddcc       0x5c uspi/libuspi.a(dwhcixferstagedata.o)
                0x01f1ddcc                _DWHCITransferStageData
 .text.DWHCITransferStageDataTransactionComplete
                0x01f1de28       0xf0 uspi/libuspi.a(dwhcixferstagedata.o)
                0x01f1de28                DWHCITransferStageDataTransactionComplete
 .text.DWHCITransferStageDataSetSplitComplete
                0x01f1df18        0x8 uspi/libuspi.a(dwhcixferstagedata.o)
                0x01f1df18                DWHCITransferStageDataSetSplitComplete
 .text.DWHCITransferStageDataSetState
                0x01f1df20        0x8 uspi/libuspi.a(dwhcixferstagedata.o)
                0x01f1df20                DWHCITransferStageDataSetState
 .text.DWHCITransferStageDataGetState
                0x01f1df28        0x8 uspi/libuspi.a(dwhcixferstagedata.o)
                0x01f1df28                DWHCITransferStageDataGetState
 .text.DWHCITransferStageDataSetSubState
                0x01f1df30        0x8 uspi/libuspi.a(dwhcixferstagedata.o)
                0x01f1df30                DWHCITransferStageDataSetSubState
 .text.DWHCITransferStageDataGetSubState
                0x01f1df38        0x8 uspi/libuspi.a(dwhcixferstagedata.o)
                0x01f1df38                DWHCITransferStageDataGetSubState
 .text.DWHCITransferStageDataBeginSplitCycle
                0x01f1df40        0x8 uspi/libuspi.a(dwhcixferstagedata.o)
                0x01f1df40                DWHCITransferStageDataBeginSplitCycle
 .text.DWHCITransferStageDataGetChannelNumber
                0x01f1df48        0x8 uspi/libuspi.a(dwhcixferstagedata.o)
                0x01f1df48                DWHCITransferStageDataGetChannelNumber
 .text.DWHCITransferStageDataIsPeriodic
                0x01f1df50       0x24 uspi/libuspi.a(dwhcixferstagedata.o)
                0x01f1df50                DWHCITransferStageDataIsPeriodic
 .text.DWHCITransferStageDataGetDeviceAddress
                0x01f1df74        0x8 uspi/libuspi.a(dwhcixferstagedata.o)
                0x01f1df74                DWHCITransferStageDataGetDeviceAddress
 .text.DWHCITransferStageDataGetEndpointType
                0x01f1df7c       0x2c uspi/libuspi.a(dwhcixferstagedata.o)
                0x01f1df7c                DWHCITransferStageDataGetEndpointType
 .text.DWHCITransferStageDataGetEndpointNumber
                0x01f1dfa8        0x8 uspi/libuspi.a(dwhcixferstagedata.o)
                0x01f1dfa8                DWHCITransferStageDataGetEndpointNumber
 .text.DWHCITransferStageDataGetMaxPacketSize
                0x01f1dfb0        0x8 uspi/libuspi.a(dwhcixferstagedata.o)
                0x01f1dfb0                DWHCITransferStageDataGetMaxPacketSize
 .text.DWHCITransferStageDataGetSpeed
                0x01f1dfb8        0x8 uspi/libuspi.a(dwhcixferstagedata.o)
                0x01f1dfb8                DWHCITransferStageDataGetSpeed
 .text.DWHCITransferStageDataGetPID
                0x01f1dfc0       0x30 uspi/libuspi.a(dwhcixferstagedata.o)
                0x01f1dfc0                DWHCITransferStageDataGetPID
 .text.DWHCITransferStageDataIsDirectionIn
                0x01f1dff0        0x8 uspi/libuspi.a(dwhcixferstagedata.o)
                0x01f1dff0                DWHCITransferStageDataIsDirectionIn
 .text.DWHCITransferStageDataIsStatusStage
                0x01f1dff8        0x8 uspi/libuspi.a(dwhcixferstagedata.o)
                0x01f1dff8                DWHCITransferStageDataIsStatusStage
 .text.DWHCITransferStageDataGetDMAAddress
                0x01f1e000        0x8 uspi/libuspi.a(dwhcixferstagedata.o)
                0x01f1e000                DWHCITransferStageDataGetDMAAddress
 .text.DWHCITransferStageDataGetBytesToTransfer
                0x01f1e008        0x8 uspi/libuspi.a(dwhcixferstagedata.o)
                0x01f1e008                DWHCITransferStageDataGetBytesToTransfer
 .text.DWHCITransferStageDataGetPacketsToTransfer
                0x01f1e010        0x8 uspi/libuspi.a(dwhcixferstagedata.o)
                0x01f1e010                DWHCITransferStageDataGetPacketsToTransfer
 .text.DWHCITransferStageDataIsSplit
                0x01f1e018        0x8 uspi/libuspi.a(dwhcixferstagedata.o)
                0x01f1e018                DWHCITransferStageDataIsSplit
 .text.DWHCITransferStageDataIsSplitComplete
                0x01f1e020        0x8 uspi/libuspi.a(dwhcixferstagedata.o)
                0x01f1e020                DWHCITransferStageDataIsSplitComplete
 .text.DWHCITransferStageDataGetHubAddress
                0x01f1e028        0x8 uspi/libuspi.a(dwhcixferstagedata.o)
                0x01f1e028                DWHCITransferStageDataGetHubAddress
 .text.DWHCITransferStageDataGetHubPortAddress
                0x01f1e030        0x8 uspi/libuspi.a(dwhcixferstagedata.o)
                0x01f1e030                DWHCITransferStageDataGetHubPortAddress
 .text.DWHCITransferStageDataGetSplitPosition
                0x01f1e038        0x8 uspi/libuspi.a(dwhcixferstagedata.o)
                0x01f1e038                DWHCITransferStageDataGetSplitPosition
 .text.DWHCITransferStageDataGetStatusMask
                0x01f1e040       0x38 uspi/libuspi.a(dwhcixferstagedata.o)
                0x01f1e040                DWHCITransferStageDataGetStatusMask
 .text.DWHCITransferStageDataGetTransactionStatus
                0x01f1e078        0x8 uspi/libuspi.a(dwhcixferstagedata.o)
                0x01f1e078                DWHCITransferStageDataGetTransactionStatus
 .text.DWHCITransferStageDataIsStageComplete
                0x01f1e080       0x10 uspi/libuspi.a(dwhcixferstagedata.o)
                0x01f1e080                DWHCITransferStageDataIsStageComplete
 .text.DWHCITransferStageDataGetResultLen
                0x01f1e090       0x14 uspi/libuspi.a(dwhcixferstagedata.o)
                0x01f1e090                DWHCITransferStageDataGetResultLen
 .text.DWHCITransferStageDataGetURB
                0x01f1e0a4        0x8 uspi/libuspi.a(dwhcixferstagedata.o)
                0x01f1e0a4                DWHCITransferStageDataGetURB
 .text.DWHCITransferStageDataGetFrameScheduler
                0x01f1e0ac        0x8 uspi/libuspi.a(dwhcixferstagedata.o)
                0x01f1e0ac                DWHCITransferStageDataGetFrameScheduler
 .text          0x01f1e0b4        0x0 uspi/libuspi.a(usbdevice.o)
 .text.USBDeviceConfigure
                0x01f1e0b4       0x64 uspi/libuspi.a(usbdevice.o)
                0x01f1e0b4                USBDeviceConfigure
 .text.USBDevice
                0x01f1e118       0x70 uspi/libuspi.a(usbdevice.o)
                0x01f1e118                USBDevice
 .text.USBDeviceCopy
                0x01f1e188       0xf4 uspi/libuspi.a(usbdevice.o)
                0x01f1e188                USBDeviceCopy
 .text._USBDevice
                0x01f1e27c       0x98 uspi/libuspi.a(usbdevice.o)
                0x01f1e27c                _USBDevice
 .text.USBDeviceInitialize
                0x01f1e314      0x304 uspi/libuspi.a(usbdevice.o)
                0x01f1e314                USBDeviceInitialize
 .text.USBDeviceGetName
                0x01f1e618       0xf4 uspi/libuspi.a(usbdevice.o)
                0x01f1e618                USBDeviceGetName
 .text.USBDeviceGetAddress
                0x01f1e70c        0x8 uspi/libuspi.a(usbdevice.o)
                0x01f1e70c                USBDeviceGetAddress
 .text.USBDeviceGetSpeed
                0x01f1e714        0x8 uspi/libuspi.a(usbdevice.o)
                0x01f1e714                USBDeviceGetSpeed
 .text.USBDeviceGetHubAddress
                0x01f1e71c        0x8 uspi/libuspi.a(usbdevice.o)
                0x01f1e71c                USBDeviceGetHubAddress
 .text.USBDeviceGetHubPortNumber
                0x01f1e724        0x8 uspi/libuspi.a(usbdevice.o)
                0x01f1e724                USBDeviceGetHubPortNumber
 .text.USBDeviceGetEndpoint0
                0x01f1e72c        0x8 uspi/libuspi.a(usbdevice.o)
                0x01f1e72c                USBDeviceGetEndpoint0
 .text.USBDeviceGetHost
                0x01f1e734        0x8 uspi/libuspi.a(usbdevice.o)
                0x01f1e734                USBDeviceGetHost
 .text.USBDeviceGetDeviceDescriptor
                0x01f1e73c        0x8 uspi/libuspi.a(usbdevice.o)
                0x01f1e73c                USBDeviceGetDeviceDescriptor
 .text.USBDeviceGetConfigurationDescriptor
                0x01f1e744        0x8 uspi/libuspi.a(usbdevice.o)
                0x01f1e744                USBDeviceGetConfigurationDescriptor
 .text.USBDeviceGetDescriptor
                0x01f1e74c        0x8 uspi/libuspi.a(usbdevice.o)
                0x01f1e74c                USBDeviceGetDescriptor
 .text.USBDeviceConfigurationError
                0x01f1e754        0x8 uspi/libuspi.a(usbdevice.o)
                0x01f1e754                USBDeviceConfigurationError
 .text.USBDeviceSetAddress
                0x01f1e75c        0x8 uspi/libuspi.a(usbdevice.o)
                0x01f1e75c                USBDeviceSetAddress
 .text          0x01f1e764        0x0 uspi/libuspi.a(usbendpoint.o)
 .text.USBEndpoint
                0x01f1e764       0x2c uspi/libuspi.a(usbendpoint.o)
                0x01f1e764                USBEndpoint
 .text.USBEndpoint2
                0x01f1e790       0xf8 uspi/libuspi.a(usbendpoint.o)
                0x01f1e790                USBEndpoint2
 .text.USBEndpointCopy
                0x01f1e888       0x3c uspi/libuspi.a(usbendpoint.o)
                0x01f1e888                USBEndpointCopy
 .text._USBEndpoint
                0x01f1e8c4        0xc uspi/libuspi.a(usbendpoint.o)
                0x01f1e8c4                _USBEndpoint
 .text.USBEndpointGetDevice
                0x01f1e8d0        0x8 uspi/libuspi.a(usbendpoint.o)
                0x01f1e8d0                USBEndpointGetDevice
 .text.USBEndpointGetNumber
                0x01f1e8d8        0x8 uspi/libuspi.a(usbendpoint.o)
                0x01f1e8d8                USBEndpointGetNumber
 .text.USBEndpointGetType
                0x01f1e8e0        0x8 uspi/libuspi.a(usbendpoint.o)
                0x01f1e8e0                USBEndpointGetType
 .text.USBEndpointIsDirectionIn
                0x01f1e8e8        0x8 uspi/libuspi.a(usbendpoint.o)
                0x01f1e8e8                USBEndpointIsDirectionIn
 .text.USBEndpointSetMaxPacketSize
                0x01f1e8f0        0x8 uspi/libuspi.a(usbendpoint.o)
                0x01f1e8f0                USBEndpointSetMaxPacketSize
 .text.USBEndpointGetMaxPacketSize
                0x01f1e8f8        0x8 uspi/libuspi.a(usbendpoint.o)
                0x01f1e8f8                USBEndpointGetMaxPacketSize
 .text.USBEndpointGetInterval
                0x01f1e900        0x8 uspi/libuspi.a(usbendpoint.o)
                0x01f1e900                USBEndpointGetInterval
 .text.USBEndpointGetNextPID
                0x01f1e908       0x10 uspi/libuspi.a(usbendpoint.o)
                0x01f1e908                USBEndpointGetNextPID
 .text.USBEndpointSkipPID
                0x01f1e918       0x54 uspi/libuspi.a(usbendpoint.o)
                0x01f1e918                USBEndpointSkipPID
 .text.USBEndpointResetPID
                0x01f1e96c        0xc uspi/libuspi.a(usbendpoint.o)
                0x01f1e96c                USBEndpointResetPID
 .text          0x01f1e978        0x0 uspi/libuspi.a(usbrequest.o)
 .text.USBRequest
                0x01f1e978       0x34 uspi/libuspi.a(usbrequest.o)
                0x01f1e978                USBRequest
 .text._USBRequest
                0x01f1e9ac       0x18 uspi/libuspi.a(usbrequest.o)
                0x01f1e9ac                _USBRequest
 .text.USBRequestGetEndpoint
                0x01f1e9c4        0x8 uspi/libuspi.a(usbrequest.o)
                0x01f1e9c4                USBRequestGetEndpoint
 .text.USBRequestSetStatus
                0x01f1e9cc        0x8 uspi/libuspi.a(usbrequest.o)
                0x01f1e9cc                USBRequestSetStatus
 .text.USBRequestSetResultLen
                0x01f1e9d4        0x8 uspi/libuspi.a(usbrequest.o)
                0x01f1e9d4                USBRequestSetResultLen
 .text.USBRequestGetStatus
                0x01f1e9dc        0x8 uspi/libuspi.a(usbrequest.o)
                0x01f1e9dc                USBRequestGetStatus
 .text.USBRequestGetResultLength
                0x01f1e9e4        0x8 uspi/libuspi.a(usbrequest.o)
                0x01f1e9e4                USBRequestGetResultLength
 .text.USBRequestGetSetupData
                0x01f1e9ec        0x8 uspi/libuspi.a(usbrequest.o)
                0x01f1e9ec                USBRequestGetSetupData
 .text.USBRequestGetBuffer
                0x01f1e9f4        0x8 uspi/libuspi.a(usbrequest.o)
                0x01f1e9f4                USBRequestGetBuffer
 .text.USBRequestGetBufLen
                0x01f1e9fc        0x8 uspi/libuspi.a(usbrequest.o)
                0x01f1e9fc                USBRequestGetBufLen
 .text.USBRequestSetCompletionRoutine
                0x01f1ea04       0x10 uspi/libuspi.a(usbrequest.o)
                0x01f1ea04                USBRequestSetCompletionRoutine
 .text.USBRequestCallCompletionRoutine
                0x01f1ea14       0x1c uspi/libuspi.a(usbrequest.o)
                0x01f1ea14                USBRequestCallCompletionRoutine
 .text          0x01f1ea30        0x0 uspi/libuspi.a(devicenameservice.o)
 .text.DeviceNameService
                0x01f1ea30       0x18 uspi/libuspi.a(devicenameservice.o)
                0x01f1ea30                DeviceNameService
 .text._DeviceNameService
                0x01f1ea48       0x58 uspi/libuspi.a(devicenameservice.o)
                0x01f1ea48                _DeviceNameService
 .text.DeviceNameServiceAddDevice
                0x01f1eaa0       0x54 uspi/libuspi.a(devicenameservice.o)
                0x01f1eaa0                DeviceNameServiceAddDevice
 .text.DeviceNameServiceGetDevice
                0x01f1eaf4       0x54 uspi/libuspi.a(devicenameservice.o)
                0x01f1eaf4                DeviceNameServiceGetDevice
 .text.DeviceNameServiceGet
                0x01f1eb48       0x10 uspi/libuspi.a(devicenameservice.o)
                0x01f1eb48                DeviceNameServiceGet
 .text          0x01f1eb58        0x0 uspi/libuspi.a(macaddress.o)
 .text.MACAddress
                0x01f1eb58        0xc uspi/libuspi.a(macaddress.o)
                0x01f1eb58                MACAddress
 .text.MACAddress2
                0x01f1eb64       0x20 uspi/libuspi.a(macaddress.o)
                0x01f1eb64                MACAddress2
 .text._MACAddress
                0x01f1eb84        0xc uspi/libuspi.a(macaddress.o)
                0x01f1eb84                _MACAddress
 .text.MACAddressIsEqual
                0x01f1eb90       0x20 uspi/libuspi.a(macaddress.o)
                0x01f1eb90                MACAddressIsEqual
 .text.MACAddressSet
                0x01f1ebb0       0x20 uspi/libuspi.a(macaddress.o)
                0x01f1ebb0                MACAddressSet
 .text.MACAddressSetBroadcast
                0x01f1ebd0       0x24 uspi/libuspi.a(macaddress.o)
                0x01f1ebd0                MACAddressSetBroadcast
 .text.MACAddressGet
                0x01f1ebf4        0x8 uspi/libuspi.a(macaddress.o)
                0x01f1ebf4                MACAddressGet
 .text.MACAddressCopyTo
                0x01f1ebfc       0x14 uspi/libuspi.a(macaddress.o)
                0x01f1ebfc                MACAddressCopyTo
 .text.MACAddressIsBroadcast
                0x01f1ec10       0x58 uspi/libuspi.a(macaddress.o)
                0x01f1ec10                MACAddressIsBroadcast
 .text.MACAddressGetSize
                0x01f1ec68        0x8 uspi/libuspi.a(macaddress.o)
                0x01f1ec68                MACAddressGetSize
 .text.MACAddressFormat
                0x01f1ec70       0x48 uspi/libuspi.a(macaddress.o)
                0x01f1ec70                MACAddressFormat
 .text          0x01f1ecb8        0x0 uspi/libuspi.a(smsc951x.o)
 .text.SMSC951xDevice
                0x01f1ecb8       0x38 uspi/libuspi.a(smsc951x.o)
                0x01f1ecb8                SMSC951xDevice
 .text._SMSC951xDevice
                0x01f1ecf0       0x6c uspi/libuspi.a(smsc951x.o)
                0x01f1ecf0                _SMSC951xDevice
 .text.SMSC951xDeviceGetMACAddress
                0x01f1ed5c        0x8 uspi/libuspi.a(smsc951x.o)
                0x01f1ed5c                SMSC951xDeviceGetMACAddress
 .text.SMSC951xDeviceSendFrame
                0x01f1ed64       0x5c uspi/libuspi.a(smsc951x.o)
                0x01f1ed64                SMSC951xDeviceSendFrame
 .text.SMSC951xDeviceReceiveFrame
                0x01f1edc0       0xe8 uspi/libuspi.a(smsc951x.o)
                0x01f1edc0                SMSC951xDeviceReceiveFrame
 .text.SMSC951xDeviceWriteReg
                0x01f1eea8       0x68 uspi/libuspi.a(smsc951x.o)
                0x01f1eea8                SMSC951xDeviceWriteReg
 .text.SMSC951xDeviceConfigure
                0x01f1ef10      0x378 uspi/libuspi.a(smsc951x.o)
                0x01f1ef10                SMSC951xDeviceConfigure
 .text.SMSC951xDeviceReadReg
                0x01f1f288       0x68 uspi/libuspi.a(smsc951x.o)
                0x01f1f288                SMSC951xDeviceReadReg
 .text          0x01f1f2f0        0x0 uspi/libuspi.a(lan7800.o)
 .text.LAN7800Device
                0x01f1f2f0       0x38 uspi/libuspi.a(lan7800.o)
                0x01f1f2f0                LAN7800Device
 .text._LAN7800Device
                0x01f1f328       0x6c uspi/libuspi.a(lan7800.o)
                0x01f1f328                _LAN7800Device
 .text.LAN7800DeviceGetMACAddress
                0x01f1f394        0x8 uspi/libuspi.a(lan7800.o)
                0x01f1f394                LAN7800DeviceGetMACAddress
 .text.LAN7800DeviceSendFrame
                0x01f1f39c       0x60 uspi/libuspi.a(lan7800.o)
                0x01f1f39c                LAN7800DeviceSendFrame
 .text.LAN7800DeviceReceiveFrame
                0x01f1f3fc       0xdc uspi/libuspi.a(lan7800.o)
                0x01f1f3fc                LAN7800DeviceReceiveFrame
 .text.LAN7800DeviceIsLinkUp
                0x01f1f4d8      0x210 uspi/libuspi.a(lan7800.o)
                0x01f1f4d8                LAN7800DeviceIsLinkUp
 .text.LAN7800DeviceInitMACAddress
                0x01f1f6e8      0x1ec uspi/libuspi.a(lan7800.o)
                0x01f1f6e8                LAN7800DeviceInitMACAddress
 .text.LAN7800DeviceInitPHY
                0x01f1f8d4      0x3d8 uspi/libuspi.a(lan7800.o)
                0x01f1f8d4                LAN7800DeviceInitPHY
 .text.LAN7800DevicePHYWrite
                0x01f1fcac      0x218 uspi/libuspi.a(lan7800.o)
                0x01f1fcac                LAN7800DevicePHYWrite
 .text.LAN7800DevicePHYRead
                0x01f1fec4      0x218 uspi/libuspi.a(lan7800.o)
                0x01f1fec4                LAN7800DevicePHYRead
 .text.LAN7800DeviceWaitReg
                0x01f200dc       0xc0 uspi/libuspi.a(lan7800.o)
                0x01f200dc                LAN7800DeviceWaitReg
 .text.LAN7800DeviceReadWriteReg
                0x01f2019c      0x100 uspi/libuspi.a(lan7800.o)
                0x01f2019c                LAN7800DeviceReadWriteReg
 .text.LAN7800DeviceWriteReg
                0x01f2029c       0x94 uspi/libuspi.a(lan7800.o)
                0x01f2029c                LAN7800DeviceWriteReg
 .text.LAN7800DeviceConfigure
                0x01f20330      0x4f0 uspi/libuspi.a(lan7800.o)
                0x01f20330                LAN7800DeviceConfigure
 .text.LAN7800DeviceReadReg
                0x01f20820       0x88 uspi/libuspi.a(lan7800.o)
                0x01f20820                LAN7800DeviceReadReg
 .text          0x01f208a8        0x0 uspi/libuspi.a(string.o)
 .text.String   0x01f208a8       0x10 uspi/libuspi.a(string.o)
                0x01f208a8                String
 .text.String2  0x01f208b8       0x34 uspi/libuspi.a(string.o)
                0x01f208b8                String2
 .text._String  0x01f208ec       0x28 uspi/libuspi.a(string.o)
                0x01f208ec                _String
 .text.StringGet
                0x01f20914       0x18 uspi/libuspi.a(string.o)
                0x01f20914                StringGet
 .text.StringSet
                0x01f2092c       0x48 uspi/libuspi.a(string.o)
                0x01f2092c                StringSet
 .text.StringGetLength
                0x01f20974       0x10 uspi/libuspi.a(string.o)
                0x01f20974                StringGetLength
 .text.StringAppend
                0x01f20984       0x7c uspi/libuspi.a(string.o)
                0x01f20984                StringAppend
 .text.StringCompare
                0x01f20a00        0x8 uspi/libuspi.a(string.o)
                0x01f20a00                StringCompare
 .text.StringFind
                0x01f20a08       0x44 uspi/libuspi.a(string.o)
                0x01f20a08                StringFind
 .text.StringFormatV
                0x01f20a4c      0xe40 uspi/libuspi.a(string.o)
                0x01f20a4c                StringFormatV
 .text.StringFormat
                0x01f2188c       0x30 uspi/libuspi.a(string.o)
                0x01f2188c                StringFormat
 .text.StringPutChar
                0x01f218bc       0x98 uspi/libuspi.a(string.o)
                0x01f218bc                StringPutChar
 .text.StringPutString
                0x01f21954       0x94 uspi/libuspi.a(string.o)
                0x01f21954                StringPutString
 .text.StringReserveSpace
                0x01f219e8       0x68 uspi/libuspi.a(string.o)
                0x01f219e8                StringReserveSpace
 .text.ntoa     0x01f21a50       0x84 uspi/libuspi.a(string.o)
                0x01f21a50                ntoa
 .text          0x01f21ad4        0x0 uspi/libuspi.a(util.o)
 .text.uspi_memset
                0x01f21ad4      0x174 uspi/libuspi.a(util.o)
                0x01f21ad4                uspi_memset
 .text.uspi_memcpy
                0x01f21c48      0x36c uspi/libuspi.a(util.o)
                0x01f21c48                uspi_memcpy
 .text.uspi_memcmp
                0x01f21fb4       0x5c uspi/libuspi.a(util.o)
                0x01f21fb4                uspi_memcmp
 .text.uspi_strlen
                0x01f22010       0x28 uspi/libuspi.a(util.o)
                0x01f22010                uspi_strlen
 .text.uspi_strcmp
                0x01f22038       0x74 uspi/libuspi.a(util.o)
                0x01f22038                uspi_strcmp
 .text.uspi_strcpy
                0x01f220ac       0x2c uspi/libuspi.a(util.o)
                0x01f220ac                uspi_strcpy
 .text.uspi_strncpy
                0x01f220d8       0x50 uspi/libuspi.a(util.o)
                0x01f220d8                uspi_strncpy
 .text.uspi_strcat
                0x01f22128       0x44 uspi/libuspi.a(util.o)
                0x01f22128                uspi_strcat
 .text.uspi_char2int
                0x01f2216c        0x4 uspi/libuspi.a(util.o)
                0x01f2216c                uspi_char2int
 .text.uspi_le2be16
                0x01f22170        0xc uspi/libuspi.a(util.o)
                0x01f22170                uspi_le2be16
 .text.uspi_le2be32
                0x01f2217c        0x8 uspi/libuspi.a(util.o)
                0x01f2217c                uspi_le2be32
 .text          0x01f22184        0x0 uspi/libuspi.a(usbmassdevice.o)
 .text.USBBulkOnlyMassStorageDevice
                0x01f22184       0x38 uspi/libuspi.a(usbmassdevice.o)
                0x01f22184                USBBulkOnlyMassStorageDevice
 .text._USBBulkOnlyMassStorageDevice
                0x01f221bc       0x54 uspi/libuspi.a(usbmassdevice.o)
                0x01f221bc                _USBBulkOnlyMassStorageDevice
 .text.USBBulkOnlyMassStorageDeviceSeek
                0x01f22210       0x10 uspi/libuspi.a(usbmassdevice.o)
                0x01f22210                USBBulkOnlyMassStorageDeviceSeek
 .text.USBBulkOnlyMassStorageDeviceGetCapacity
                0x01f22220        0x8 uspi/libuspi.a(usbmassdevice.o)
                0x01f22220                USBBulkOnlyMassStorageDeviceGetCapacity
 .text.USBBulkOnlyMassStorageDeviceTryRead
                0x01f22228      0x280 uspi/libuspi.a(usbmassdevice.o)
                0x01f22228                USBBulkOnlyMassStorageDeviceTryRead
 .text.USBBulkOnlyMassStorageDeviceTryWrite
                0x01f224a8      0x264 uspi/libuspi.a(usbmassdevice.o)
                0x01f224a8                USBBulkOnlyMassStorageDeviceTryWrite
 .text.USBBulkOnlyMassStorageDeviceCommand
                0x01f2270c      0x18c uspi/libuspi.a(usbmassdevice.o)
                0x01f2270c                USBBulkOnlyMassStorageDeviceCommand
 .text.USBBulkOnlyMassStorageDeviceConfigure
                0x01f22898      0x45c uspi/libuspi.a(usbmassdevice.o)
                0x01f22898                USBBulkOnlyMassStorageDeviceConfigure
 .text.USBBulkOnlyMassStorageDeviceReset
                0x01f22cf4      0x104 uspi/libuspi.a(usbmassdevice.o)
                0x01f22cf4                USBBulkOnlyMassStorageDeviceReset
 .text.USBBulkOnlyMassStorageDeviceRead
                0x01f22df8      0x2a4 uspi/libuspi.a(usbmassdevice.o)
                0x01f22df8                USBBulkOnlyMassStorageDeviceRead
 .text.USBBulkOnlyMassStorageDeviceWrite
                0x01f2309c      0x294 uspi/libuspi.a(usbmassdevice.o)
                0x01f2309c                USBBulkOnlyMassStorageDeviceWrite
 .text          0x01f23330        0x0 uspi/libuspi.a(dwhciframeschednper.o)
 .text._DWHCIFrameSchedulerNonPeriodic
                0x01f23330        0xc uspi/libuspi.a(dwhciframeschednper.o)
                0x01f23330                _DWHCIFrameSchedulerNonPeriodic
 .text.DWHCIFrameSchedulerNonPeriodicStartSplit
                0x01f2333c        0xc uspi/libuspi.a(dwhciframeschednper.o)
                0x01f2333c                DWHCIFrameSchedulerNonPeriodicStartSplit
 .text.DWHCIFrameSchedulerNonPeriodicWaitForFrame
                0x01f23348        0x4 uspi/libuspi.a(dwhciframeschednper.o)
                0x01f23348                DWHCIFrameSchedulerNonPeriodicWaitForFrame
 .text.DWHCIFrameSchedulerNonPeriodicIsOddFrame
                0x01f2334c        0x8 uspi/libuspi.a(dwhciframeschednper.o)
                0x01f2334c                DWHCIFrameSchedulerNonPeriodicIsOddFrame
 .text.DWHCIFrameSchedulerNonPeriodicCompleteSplit
                0x01f23354       0x54 uspi/libuspi.a(dwhciframeschednper.o)
                0x01f23354                DWHCIFrameSchedulerNonPeriodicCompleteSplit
 .text.DWHCIFrameSchedulerNonPeriodicTransactionComplete
                0x01f233a8       0xc0 uspi/libuspi.a(dwhciframeschednper.o)
                0x01f233a8                DWHCIFrameSchedulerNonPeriodicTransactionComplete
 .text.DWHCIFrameSchedulerNonPeriodic
                0x01f23468       0x54 uspi/libuspi.a(dwhciframeschednper.o)
                0x01f23468                DWHCIFrameSchedulerNonPeriodic
 .text          0x01f234bc        0x0 uspi/libuspi.a(dwhciframeschedper.o)
 .text._DWHCIFrameSchedulerPeriodic
                0x01f234bc        0xc uspi/libuspi.a(dwhciframeschedper.o)
                0x01f234bc                _DWHCIFrameSchedulerPeriodic
 .text.DWHCIFrameSchedulerPeriodicStartSplit
                0x01f234c8       0x14 uspi/libuspi.a(dwhciframeschedper.o)
                0x01f234c8                DWHCIFrameSchedulerPeriodicStartSplit
 .text.DWHCIFrameSchedulerPeriodicIsOddFrame
                0x01f234dc        0xc uspi/libuspi.a(dwhciframeschedper.o)
                0x01f234dc                DWHCIFrameSchedulerPeriodicIsOddFrame
 .text.DWHCIFrameSchedulerPeriodicWaitForFrame
                0x01f234e8       0x70 uspi/libuspi.a(dwhciframeschedper.o)
                0x01f234e8                DWHCIFrameSchedulerPeriodicWaitForFrame
 .text.DWHCIFrameSchedulerPeriodicCompleteSplit
                0x01f23558       0x68 uspi/libuspi.a(dwhciframeschedper.o)
                0x01f23558                DWHCIFrameSchedulerPeriodicCompleteSplit
 .text.DWHCIFrameSchedulerPeriodicTransactionComplete
                0x01f235c0       0xb4 uspi/libuspi.a(dwhciframeschedper.o)
                0x01f235c0                DWHCIFrameSchedulerPeriodicTransactionComplete
 .text.DWHCIFrameSchedulerPeriodic
                0x01f23674       0x5c uspi/libuspi.a(dwhciframeschedper.o)
                0x01f23674                DWHCIFrameSchedulerPeriodic
 .text          0x01f236d0        0x0 uspi/libuspi.a(usbkeyboard.o)
 .text.USBKeyboardDeviceConfigure
                0x01f236d0      0x2bc uspi/libuspi.a(usbkeyboard.o)
                0x01f236d0                USBKeyboardDeviceConfigure
 .text.USBKeyboardDeviceCompletionRoutine
                0x01f2398c      0x208 uspi/libuspi.a(usbkeyboard.o)
 .text.USBKeyboardDevice
                0x01f23b94       0x58 uspi/libuspi.a(usbkeyboard.o)
                0x01f23b94                USBKeyboardDevice
 .text._CUSBKeyboardDevice
                0x01f23bec       0x54 uspi/libuspi.a(usbkeyboard.o)
                0x01f23bec                _CUSBKeyboardDevice
 .text.USBKeyboardDeviceRegisterKeyPressedHandler
                0x01f23c40        0x8 uspi/libuspi.a(usbkeyboard.o)
                0x01f23c40                USBKeyboardDeviceRegisterKeyPressedHandler
 .text.USBKeyboardDeviceRegisterSelectConsoleHandler
                0x01f23c48        0x8 uspi/libuspi.a(usbkeyboard.o)
                0x01f23c48                USBKeyboardDeviceRegisterSelectConsoleHandler
 .text.USBKeyboardDeviceRegisterShutdownHandler
                0x01f23c50        0x8 uspi/libuspi.a(usbkeyboard.o)
                0x01f23c50                USBKeyboardDeviceRegisterShutdownHandler
 .text.USBKeyboardDeviceRegisterKeyStatusHandlerRaw
                0x01f23c58        0x8 uspi/libuspi.a(usbkeyboard.o)
                0x01f23c58                USBKeyboardDeviceRegisterKeyStatusHandlerRaw
 .text          0x01f23c60        0x0 uspi/libuspi.a(dwhcirootport.o)
 .text.DWHCIRootPort
                0x01f23c60        0xc uspi/libuspi.a(dwhcirootport.o)
                0x01f23c60                DWHCIRootPort
 .text._DWHCIRootPort
                0x01f23c6c       0x34 uspi/libuspi.a(dwhcirootport.o)
                0x01f23c6c                _DWHCIRootPort
 .text.DWHCIRootPortInitialize
                0x01f23ca0      0x1d0 uspi/libuspi.a(dwhcirootport.o)
                0x01f23ca0                DWHCIRootPortInitialize
 .text          0x01f23e70        0x0 uspi/libuspi.a(usbmouse.o)
 .text.USBMouseDeviceConfigure
                0x01f23e70      0x2bc uspi/libuspi.a(usbmouse.o)
                0x01f23e70                USBMouseDeviceConfigure
 .text.USBMouseDeviceCompletionRoutine
                0x01f2412c       0xd4 uspi/libuspi.a(usbmouse.o)
 .text.USBMouseDevice
                0x01f24200       0x3c uspi/libuspi.a(usbmouse.o)
                0x01f24200                USBMouseDevice
 .text._CUSBMouseDevice
                0x01f2423c       0x4c uspi/libuspi.a(usbmouse.o)
                0x01f2423c                _CUSBMouseDevice
 .text.USBMouseDeviceRegisterStatusHandler
                0x01f24288        0x8 uspi/libuspi.a(usbmouse.o)
                0x01f24288                USBMouseDeviceRegisterStatusHandler
 .text          0x01f24290        0x0 uspi/libuspi.a(dwhciframeschednsplit.o)
 .text.DWHCIFrameSchedulerNoSplitStartSplit
                0x01f24290        0x4 uspi/libuspi.a(dwhciframeschednsplit.o)
                0x01f24290                DWHCIFrameSchedulerNoSplitStartSplit
 .text.DWHCIFrameSchedulerNoSplitCompleteSplit
                0x01f24294        0x8 uspi/libuspi.a(dwhciframeschednsplit.o)
                0x01f24294                DWHCIFrameSchedulerNoSplitCompleteSplit
 .text.DWHCIFrameSchedulerNoSplitTransactionComplete
                0x01f2429c        0x4 uspi/libuspi.a(dwhciframeschednsplit.o)
                0x01f2429c                DWHCIFrameSchedulerNoSplitTransactionComplete
 .text.DWHCIFrameSchedulerNoSplitIsOddFrame
                0x01f242a0        0xc uspi/libuspi.a(dwhciframeschednsplit.o)
                0x01f242a0                DWHCIFrameSchedulerNoSplitIsOddFrame
 .text.DWHCIFrameSchedulerNoSplitWaitForFrame
                0x01f242ac       0x64 uspi/libuspi.a(dwhciframeschednsplit.o)
                0x01f242ac                DWHCIFrameSchedulerNoSplitWaitForFrame
 .text._DWHCIFrameSchedulerNoSplit
                0x01f24310        0x4 uspi/libuspi.a(dwhciframeschednsplit.o)
                0x01f24310                _DWHCIFrameSchedulerNoSplit
 .text.DWHCIFrameSchedulerNoSplit
                0x01f24314       0x58 uspi/libuspi.a(dwhciframeschednsplit.o)
                0x01f24314                DWHCIFrameSchedulerNoSplit
 .text          0x01f2436c        0x0 uspi/libuspi.a(usbgamepad.o)
 .text.BitGetUnsigned
                0x01f2436c      0x104 uspi/libuspi.a(usbgamepad.o)
 .text.USBGamePadDeviceDecodeReport
                0x01f24470      0x89c uspi/libuspi.a(usbgamepad.o)
 .text.USBGamePadDeviceConfigure
                0x01f24d0c      0x434 uspi/libuspi.a(usbgamepad.o)
                0x01f24d0c                USBGamePadDeviceConfigure
 .text.USBGamePadDeviceCompletionRoutine
                0x01f25140       0xcc uspi/libuspi.a(usbgamepad.o)
 .text.USBGamePadDevice
                0x01f2520c       0x9c uspi/libuspi.a(usbgamepad.o)
                0x01f2520c                USBGamePadDevice
 .text._CUSBGamePadDevice
                0x01f252a8       0x84 uspi/libuspi.a(usbgamepad.o)
                0x01f252a8                _CUSBGamePadDevice
 .text.USBGamePadDeviceRegisterStatusHandler
                0x01f2532c        0x8 uspi/libuspi.a(usbgamepad.o)
                0x01f2532c                USBGamePadDeviceRegisterStatusHandler
 .text.USBGamePadDeviceGetReport
                0x01f25334       0x70 uspi/libuspi.a(usbgamepad.o)
                0x01f25334                USBGamePadDeviceGetReport
 .text          0x01f253a4        0x0 uspi/libuspi.a(synchronize.o)
 .text.uspi_EnterCritical
                0x01f253a4       0x3c uspi/libuspi.a(synchronize.o)
                0x01f253a4                uspi_EnterCritical
 .text.uspi_LeaveCritical
                0x01f253e0       0x3c uspi/libuspi.a(synchronize.o)
                0x01f253e0                uspi_LeaveCritical
 .text.uspi_CleanAndInvalidateDataCacheRange
                0x01f2541c       0x30 uspi/libuspi.a(synchronize.o)
                0x01f2541c                uspi_CleanAndInvalidateDataCacheRange
 .text          0x01f2544c        0x0 uspi/libuspi.a(usbstring.o)
 .text.USBString
                0x01f2544c       0x24 uspi/libuspi.a(usbstring.o)
                0x01f2544c                USBString
 .text.USBStringCopy
                0x01f25470       0x6c uspi/libuspi.a(usbstring.o)
                0x01f25470                USBStringCopy
 .text._USBString
                0x01f254dc       0x40 uspi/libuspi.a(usbstring.o)
                0x01f254dc                _USBString
 .text.USBStringGetFromDescriptor
                0x01f2551c      0x474 uspi/libuspi.a(usbstring.o)
                0x01f2551c                USBStringGetFromDescriptor
 .text.USBStringGet
                0x01f25990        0x8 uspi/libuspi.a(usbstring.o)
                0x01f25990                USBStringGet
 .text.USBStringGetLanguageID
                0x01f25998      0x154 uspi/libuspi.a(usbstring.o)
                0x01f25998                USBStringGetLanguageID
 .text          0x01f25aec        0x0 uspi/libuspi.a(usbmidi.o)
 .text.USBMIDIDeviceConfigure
                0x01f25aec      0x218 uspi/libuspi.a(usbmidi.o)
                0x01f25aec                USBMIDIDeviceConfigure
 .text.USBMIDIDeviceCompletionRoutine
                0x01f25d04       0xfc uspi/libuspi.a(usbmidi.o)
 .text.USBMIDIDevice
                0x01f25e00       0x30 uspi/libuspi.a(usbmidi.o)
                0x01f25e00                USBMIDIDevice
 .text._CUSBMIDIDevice
                0x01f25e30       0x4c uspi/libuspi.a(usbmidi.o)
                0x01f25e30                _CUSBMIDIDevice
 .text.USBMIDIDeviceRegisterPacketHandler
                0x01f25e7c        0x8 uspi/libuspi.a(usbmidi.o)
                0x01f25e7c                USBMIDIDeviceRegisterPacketHandler
 .text          0x01f25e84        0x0 uspi/libuspi.a(usbconfigparser.o)
 .text.USBConfigurationParser
                0x01f25e84      0x110 uspi/libuspi.a(usbconfigparser.o)
                0x01f25e84                USBConfigurationParser
 .text._USBConfigurationParser
                0x01f25f94        0xc uspi/libuspi.a(usbconfigparser.o)
                0x01f25f94                _USBConfigurationParser
 .text.USBConfigurationParserIsValid
                0x01f25fa0        0x8 uspi/libuspi.a(usbconfigparser.o)
                0x01f25fa0                USBConfigurationParserIsValid
 .text.USBConfigurationParserGetDescriptor
                0x01f25fa8       0xa4 uspi/libuspi.a(usbconfigparser.o)
                0x01f25fa8                USBConfigurationParserGetDescriptor
 .text.USBConfigurationParserError
                0x01f2604c       0x2c uspi/libuspi.a(usbconfigparser.o)
                0x01f2604c                USBConfigurationParserError
 .text          0x01f26078        0x0 uspi/libuspi.a(usbdevicefactory.o)
 .text.GetDevice
                0x01f26078      0x1d0 uspi/libuspi.a(usbdevicefactory.o)
                0x01f26078                GetDevice
 .text.USBDeviceFactoryGetDevice
                0x01f26248      0x224 uspi/libuspi.a(usbdevicefactory.o)
                0x01f26248                USBDeviceFactoryGetDevice
 .text          0x01f2646c        0x0 uspi/libuspi.a(usbstandardhub.o)
 .text.USBStandardHub
                0x01f2646c       0x68 uspi/libuspi.a(usbstandardhub.o)
                0x01f2646c                USBStandardHub
 .text._USBStandardHub
                0x01f264d4       0x8c uspi/libuspi.a(usbstandardhub.o)
                0x01f264d4                _USBStandardHub
 .text.USBStandardHubInitialize
                0x01f26560        0x4 uspi/libuspi.a(usbstandardhub.o)
                0x01f26560                USBStandardHubInitialize
 .text.USBStandardHubGetDeviceNames
                0x01f26564       0xc0 uspi/libuspi.a(usbstandardhub.o)
                0x01f26564                USBStandardHubGetDeviceNames
 .text.USBStandardHubEnumeratePorts
                0x01f26624      0x584 uspi/libuspi.a(usbstandardhub.o)
                0x01f26624                USBStandardHubEnumeratePorts
 .text.USBStandardHubConfigure
                0x01f26ba8      0x2bc uspi/libuspi.a(usbstandardhub.o)
                0x01f26ba8                USBStandardHubConfigure
 .text          0x01f26e64        0x0 uspi/libuspi.a(keymap.o)
 .text.KeyMap   0x01f26e64       0x24 uspi/libuspi.a(keymap.o)
                0x01f26e64                KeyMap
 .text._KeyMap  0x01f26e88        0x4 uspi/libuspi.a(keymap.o)
                0x01f26e88                _KeyMap
 .text.KeyMapClearTable
                0x01f26e8c       0x34 uspi/libuspi.a(keymap.o)
                0x01f26e8c                KeyMapClearTable
 .text.KeyMapSetEntry
                0x01f26ec0       0x50 uspi/libuspi.a(keymap.o)
                0x01f26ec0                KeyMapSetEntry
 .text.KeyMapTranslate
                0x01f26f10      0x118 uspi/libuspi.a(keymap.o)
                0x01f26f10                KeyMapTranslate
 .text.KeyMapGetString
                0x01f27028       0xbc uspi/libuspi.a(keymap.o)
                0x01f27028                KeyMapGetString
 .text.KeyMapGetLEDStatus
                0x01f270e4       0x34 uspi/libuspi.a(keymap.o)
                0x01f270e4                KeyMapGetLEDStatus
 .text          0x01f27118       0x3c i:/development/arm/gnu tools arm embedded/5.4 2016q2/bin/../lib/gcc/arm-none-eabi/5.4.1/fpu\libgcc.a(_aeabi_uldivmod.o)
                0x01f27118                __aeabi_uldivmod
 .text          0x01f27154      0x12c i:/development/arm/gnu tools arm embedded/5.4 2016q2/bin/../lib/gcc/arm-none-eabi/5.4.1/fpu\libgcc.a(_udivmoddi4.o)
                0x01f27154                __udivmoddi4
 .text          0x01f27280        0x4 i:/development/arm/gnu tools arm embedded/5.4 2016q2/bin/../lib/gcc/arm-none-eabi/5.4.1/fpu\libgcc.a(_dvmd_tls.o)
                0x01f27280                __aeabi_idiv0
                0x01f27280                __aeabi_ldiv0
 .text          0x01f27284       0x28 i:/development/arm/gnu tools arm embedded/5.4 2016q2/bin/../lib/gcc/arm-none-eabi/5.4.1/fpu\libgcc.a(_clzdi2.o)
                0x01f27284                __clzdi2
 .text          0x01f272ac       0x48 i:/development/arm/gnu tools arm embedded/5.4 2016q2/bin/../lib/gcc/arm-none-eabi/5.4.1/fpu\libgcc.a(_clzsi2.o)
                0x01f272ac                __clzsi2
 .text          0x01f272f4        0x0 i:/development/arm/gnu tools arm embedded/5.4 2016q2/bin/../lib/gcc/arm-none-eabi/5.4.1/../../../../arm-none-eabi/lib/fpu\libc.a(lib_a-abs.o)
 .text.abs      0x01f272f4        0xc i:/development/arm/gnu tools arm embedded/5.4 2016q2/bin/../lib/gcc/arm-none-eabi/5.4.1/../../../../arm-none-eabi/lib/fpu\libc.a(lib_a-abs.o)
                0x01f272f4                abs
 .text          0x01f27300        0x0 i:/development/arm/gnu tools arm embedded/5.4 2016q2/bin/../lib/gcc/arm-none-eabi/5.4.1/../../../../arm-none-eabi/lib/fpu\libc.a(lib_a-aeabi_atexit.o)
 .text.__aeabi_atexit
                0x01f27300       0x1c i:/development/arm/gnu tools arm embedded/5.4 2016q2/bin/../lib/gcc/arm-none-eabi/5.4.1/../../../../arm-none-eabi/lib/fpu\libc.a(lib_a-aeabi_atexit.o)
                0x01f27300                __aeabi_atexit
 .text          0x01f2731c        0x0 i:/development/arm/gnu tools arm embedded/5.4 2016q2/bin/../lib/gcc/arm-none-eabi/5.4.1/../../../../arm-none-eabi/lib/fpu\libc.a(lib_a-cxa_atexit.o)
 .text.__cxa_atexit
                0x01f2731c       0x20 i:/development/arm/gnu tools arm embedded/5.4 2016q2/bin/../lib/gcc/arm-none-eabi/5.4.1/../../../../arm-none-eabi/lib/fpu\libc.a(lib_a-cxa_atexit.o)
                0x01f2731c                __cxa_atexit
 .text          0x01f2733c        0x0 i:/development/arm/gnu tools arm embedded/5.4 2016q2/bin/../lib/gcc/arm-none-eabi/5.4.1/../../../../arm-none-eabi/lib/fpu\libc.a(lib_a-init.o)
 .text.__libc_init_array
                0x01f2733c       0x80 i:/development/arm/gnu tools arm embedded/5.4 2016q2/bin/../lib/gcc/arm-none-eabi/5.4.1/../../../../arm-none-eabi/lib/fpu\libc.a(lib_a-init.o)
                0x01f2733c                __libc_init_array
 .text          0x01f273bc        0x0 i:/development/arm/gnu tools arm embedded/5.4 2016q2/bin/../lib/gcc/arm-none-eabi/5.4.1/../../../../arm-none-eabi/lib/fpu\libc.a(lib_a-malloc.o)
 .text.malloc   0x01f273bc       0x20 i:/development/arm/gnu tools arm embedded/5.4 2016q2/bin/../lib/gcc/arm-none-eabi/5.4.1/../../../../arm-none-eabi/lib/fpu\libc.a(lib_a-malloc.o)
                0x01f273bc                malloc
 .text.free     0x01f273dc       0x20 i:/development/arm/gnu tools arm embedded/5.4 2016q2/bin/../lib/gcc/arm-none-eabi/5.4.1/../../../../arm-none-eabi/lib/fpu\libc.a(lib_a-malloc.o)
                0x01f273dc                free
 .text          0x01f273fc        0x0 i:/development/arm/gnu tools arm embedded/5.4 2016q2/bin/../lib/gcc/arm-none-eabi/5.4.1/../../../../arm-none-eabi/lib/fpu\libc.a(lib_a-mallocr.o)
 .text._malloc_r
                0x01f273fc      0x7a8 i:/development/arm/gnu tools arm embedded/5.4 2016q2/bin/../lib/gcc/arm-none-eabi/5.4.1/../../../../arm-none-eabi/lib/fpu\libc.a(lib_a-mallocr.o)
                0x01f273fc                _malloc_r
 .text          0x01f27ba4        0x0 i:/development/arm/gnu tools arm embedded/5.4 2016q2/bin/../lib/gcc/arm-none-eabi/5.4.1/../../../../arm-none-eabi/lib/fpu\libc.a(lib_a-memcpy-stub.o)
 .text.memcpy   0x01f27ba4       0xf0 i:/development/arm/gnu tools arm embedded/5.4 2016q2/bin/../lib/gcc/arm-none-eabi/5.4.1/../../../../arm-none-eabi/lib/fpu\libc.a(lib_a-memcpy-stub.o)
                0x01f27ba4                memcpy
 .text          0x01f27c94        0x0 i:/development/arm/gnu tools arm embedded/5.4 2016q2/bin/../lib/gcc/arm-none-eabi/5.4.1/../../../../arm-none-eabi/lib/fpu\libc.a(lib_a-memset.o)
 .text.memset   0x01f27c94       0xf4 i:/development/arm/gnu tools arm embedded/5.4 2016q2/bin/../lib/gcc/arm-none-eabi/5.4.1/../../../../arm-none-eabi/lib/fpu\libc.a(lib_a-memset.o)
                0x01f27c94                memset
 .text          0x01f27d88        0x0 i:/development/arm/gnu tools arm embedded/5.4 2016q2/bin/../lib/gcc/arm-none-eabi/5.4.1/../../../../arm-none-eabi/lib/fpu\libc.a(lib_a-mlock.o)
 .text.__malloc_lock
                0x01f27d88        0x4 i:/development/arm/gnu tools arm embedded/5.4 2016q2/bin/../lib/gcc/arm-none-eabi/5.4.1/../../../../arm-none-eabi/lib/fpu\libc.a(lib_a-mlock.o)
                0x01f27d88                __malloc_lock
 .text.__malloc_unlock
                0x01f27d8c        0x4 i:/development/arm/gnu tools arm embedded/5.4 2016q2/bin/../lib/gcc/arm-none-eabi/5.4.1/../../../../arm-none-eabi/lib/fpu\libc.a(lib_a-mlock.o)
                0x01f27d8c                __malloc_unlock
 .text          0x01f27d90        0x0 i:/development/arm/gnu tools arm embedded/5.4 2016q2/bin/../lib/gcc/arm-none-eabi/5.4.1/../../../../arm-none-eabi/lib/fpu\libc.a(lib_a-printf.o)
 .text._printf_r
                0x01f27d90       0x34 i:/development/arm/gnu tools arm embedded/5.4 2016q2/bin/../lib/gcc/arm-none-eabi/5.4.1/../../../../arm-none-eabi/lib/fpu\libc.a(lib_a-printf.o)
                0x01f27d90                _printf_r
 .text.printf   0x01f27dc4       0x40 i:/development/arm/gnu tools arm embedded/5.4 2016q2/bin/../lib/gcc/arm-none-eabi/5.4.1/../../../../arm-none-eabi/lib/fpu\libc.a(lib_a-printf.o)
                0x01f27dc4                printf
 .text          0x01f27e04        0x0 i:/development/arm/gnu tools arm embedded/5.4 2016q2/bin/../lib/gcc/arm-none-eabi/5.4.1/../../../../arm-none-eabi/lib/fpu\libc.a(lib_a-reent.o)
 .text.cleanup_glue
                0x01f27e04       0x2c i:/development/arm/gnu tools arm embedded/5.4 2016q2/bin/../lib/gcc/arm-none-eabi/5.4.1/../../../../arm-none-eabi/lib/fpu\libc.a(lib_a-reent.o)
                0x01f27e04                cleanup_glue
 .text._reclaim_reent
                0x01f27e30       0xf4 i:/development/arm/gnu tools arm embedded/5.4 2016q2/bin/../lib/gcc/arm-none-eabi/5.4.1/../../../../arm-none-eabi/lib/fpu\libc.a(lib_a-reent.o)
                0x01f27e30                _reclaim_reent
 .text          0x01f27f24        0x0 i:/development/arm/gnu tools arm embedded/5.4 2016q2/bin/../lib/gcc/arm-none-eabi/5.4.1/../../../../arm-none-eabi/lib/fpu\libc.a(lib_a-sbrkr.o)
 .text._sbrk_r  0x01f27f24       0x44 i:/development/arm/gnu tools arm embedded/5.4 2016q2/bin/../lib/gcc/arm-none-eabi/5.4.1/../../../../arm-none-eabi/lib/fpu\libc.a(lib_a-sbrkr.o)
                0x01f27f24                _sbrk_r
 .text          0x01f27f68        0x0 i:/development/arm/gnu tools arm embedded/5.4 2016q2/bin/../lib/gcc/arm-none-eabi/5.4.1/../../../../arm-none-eabi/lib/fpu\libc.a(lib_a-snprintf.o)
 .text._snprintf_r
                0x01f27f68       0xd8 i:/development/arm/gnu tools arm embedded/5.4 2016q2/bin/../lib/gcc/arm-none-eabi/5.4.1/../../../../arm-none-eabi/lib/fpu\libc.a(lib_a-snprintf.o)
                0x01f27f68                _snprintf_r
 .text.snprintf
                0x01f28040       0xe8 i:/development/arm/gnu tools arm embedded/5.4 2016q2/bin/../lib/gcc/arm-none-eabi/5.4.1/../../../../arm-none-eabi/lib/fpu\libc.a(lib_a-snprintf.o)
                0x01f28040                snprintf
 .text          0x01f28128        0x0 i:/development/arm/gnu tools arm embedded/5.4 2016q2/bin/../lib/gcc/arm-none-eabi/5.4.1/../../../../arm-none-eabi/lib/fpu\libc.a(lib_a-strcpy.o)
 .text.strcpy   0x01f28128       0xf0 i:/development/arm/gnu tools arm embedded/5.4 2016q2/bin/../lib/gcc/arm-none-eabi/5.4.1/../../../../arm-none-eabi/lib/fpu\libc.a(lib_a-strcpy.o)
                0x01f28128                strcpy
 .text          0x01f28218        0x0 i:/development/arm/gnu tools arm embedded/5.4 2016q2/bin/../lib/gcc/arm-none-eabi/5.4.1/../../../../arm-none-eabi/lib/fpu\libc.a(lib_a-strlen-stub.o)
 .text.strlen   0x01f28218       0x60 i:/development/arm/gnu tools arm embedded/5.4 2016q2/bin/../lib/gcc/arm-none-eabi/5.4.1/../../../../arm-none-eabi/lib/fpu\libc.a(lib_a-strlen-stub.o)
                0x01f28218                strlen
 .text          0x01f28278        0x0 i:/development/arm/gnu tools arm embedded/5.4 2016q2/bin/../lib/gcc/arm-none-eabi/5.4.1/../../../../arm-none-eabi/lib/fpu\libc.a(lib_a-strncmp.o)
 .text.strncmp  0x01f28278      0x124 i:/development/arm/gnu tools arm embedded/5.4 2016q2/bin/../lib/gcc/arm-none-eabi/5.4.1/../../../../arm-none-eabi/lib/fpu\libc.a(lib_a-strncmp.o)
                0x01f28278                strncmp
 .text          0x01f2839c        0x0 i:/development/arm/gnu tools arm embedded/5.4 2016q2/bin/../lib/gcc/arm-none-eabi/5.4.1/../../../../arm-none-eabi/lib/fpu\libc.a(lib_a-strrchr.o)
 .text.strrchr  0x01f2839c       0x54 i:/development/arm/gnu tools arm embedded/5.4 2016q2/bin/../lib/gcc/arm-none-eabi/5.4.1/../../../../arm-none-eabi/lib/fpu\libc.a(lib_a-strrchr.o)
                0x01f2839c                strrchr
 .text          0x01f283f0        0x0 i:/development/arm/gnu tools arm embedded/5.4 2016q2/bin/../lib/gcc/arm-none-eabi/5.4.1/../../../../arm-none-eabi/lib/fpu\libc.a(lib_a-svfprintf.o)
 .text._svfprintf_r
                0x01f283f0     0x2268 i:/development/arm/gnu tools arm embedded/5.4 2016q2/bin/../lib/gcc/arm-none-eabi/5.4.1/../../../../arm-none-eabi/lib/fpu\libc.a(lib_a-svfprintf.o)
                0x01f283f0                _svfprintf_r
 .text          0x01f2a658        0x0 i:/development/arm/gnu tools arm embedded/5.4 2016q2/bin/../lib/gcc/arm-none-eabi/5.4.1/../../../../arm-none-eabi/lib/fpu\libc.a(lib_a-vfprintf.o)
 .text._vfprintf_r
                0x01f2a658     0x222c i:/development/arm/gnu tools arm embedded/5.4 2016q2/bin/../lib/gcc/arm-none-eabi/5.4.1/../../../../arm-none-eabi/lib/fpu\libc.a(lib_a-vfprintf.o)
                0x01f2a658                _vfprintf_r
 .text.vfprintf
                0x01f2c884       0x1c i:/development/arm/gnu tools arm embedded/5.4 2016q2/bin/../lib/gcc/arm-none-eabi/5.4.1/../../../../arm-none-eabi/lib/fpu\libc.a(lib_a-vfprintf.o)
                0x01f2c884                vfprintf
 .text.__sbprintf
                0x01f2c8a0       0xac i:/development/arm/gnu tools arm embedded/5.4 2016q2/bin/../lib/gcc/arm-none-eabi/5.4.1/../../../../arm-none-eabi/lib/fpu\libc.a(lib_a-vfprintf.o)
 .text          0x01f2c94c        0x0 i:/development/arm/gnu tools arm embedded/5.4 2016q2/bin/../lib/gcc/arm-none-eabi/5.4.1/../../../../arm-none-eabi/lib/fpu\libc.a(lib_a-vprintf.o)
 .text.vprintf  0x01f2c94c       0x2c i:/development/arm/gnu tools arm embedded/5.4 2016q2/bin/../lib/gcc/arm-none-eabi/5.4.1/../../../../arm-none-eabi/lib/fpu\libc.a(lib_a-vprintf.o)
                0x01f2c94c                vprintf
 .text._vprintf_r
                0x01f2c978       0x1c i:/development/arm/gnu tools arm embedded/5.4 2016q2/bin/../lib/gcc/arm-none-eabi/5.4.1/../../../../arm-none-eabi/lib/fpu\libc.a(lib_a-vprintf.o)
                0x01f2c978                _vprintf_r
 .text          0x01f2c994        0x0 i:/development/arm/gnu tools arm embedded/5.4 2016q2/bin/../lib/gcc/arm-none-eabi/5.4.1/../../../../arm-none-eabi/lib/fpu\libc.a(lib_a-wsetup.o)
 .text.__swsetup_r
                0x01f2c994      0x164 i:/development/arm/gnu tools arm embedded/5.4 2016q2/bin/../lib/gcc/arm-none-eabi/5.4.1/../../../../arm-none-eabi/lib/fpu\libc.a(lib_a-wsetup.o)
                0x01f2c994                __swsetup_r
 .text          0x01f2caf8        0x0 i:/development/arm/gnu tools arm embedded/5.4 2016q2/bin/../lib/gcc/arm-none-eabi/5.4.1/../../../../arm-none-eabi/lib/fpu\libc.a(lib_a-__atexit.o)
 .text.__register_exitproc
                0x01f2caf8       0xe0 i:/development/arm/gnu tools arm embedded/5.4 2016q2/bin/../lib/gcc/arm-none-eabi/5.4.1/../../../../arm-none-eabi/lib/fpu\libc.a(lib_a-__atexit.o)
                0x01f2caf8                __register_exitproc
 .text          0x01f2cbd8        0x0 i:/development/arm/gnu tools arm embedded/5.4 2016q2/bin/../lib/gcc/arm-none-eabi/5.4.1/../../../../arm-none-eabi/lib/fpu\libc.a(lib_a-dtoa.o)
 .text.quorem   0x01f2cbd8      0x1d8 i:/development/arm/gnu tools arm embedded/5.4 2016q2/bin/../lib/gcc/arm-none-eabi/5.4.1/../../../../arm-none-eabi/lib/fpu\libc.a(lib_a-dtoa.o)
 .text._dtoa_r  0x01f2cdb0     0x12e8 i:/development/arm/gnu tools arm embedded/5.4 2016q2/bin/../lib/gcc/arm-none-eabi/5.4.1/../../../../arm-none-eabi/lib/fpu\libc.a(lib_a-dtoa.o)
                0x01f2cdb0                _dtoa_r
 .text          0x01f2e098        0x0 i:/development/arm/gnu tools arm embedded/5.4 2016q2/bin/../lib/gcc/arm-none-eabi/5.4.1/../../../../arm-none-eabi/lib/fpu\libc.a(lib_a-fflush.o)
 .text.__sflush_r
                0x01f2e098      0x240 i:/development/arm/gnu tools arm embedded/5.4 2016q2/bin/../lib/gcc/arm-none-eabi/5.4.1/../../../../arm-none-eabi/lib/fpu\libc.a(lib_a-fflush.o)
                0x01f2e098                __sflush_r
 .text._fflush_r
                0x01f2e2d8       0x54 i:/development/arm/gnu tools arm embedded/5.4 2016q2/bin/../lib/gcc/arm-none-eabi/5.4.1/../../../../arm-none-eabi/lib/fpu\libc.a(lib_a-fflush.o)
                0x01f2e2d8                _fflush_r
 .text.fflush   0x01f2e32c       0x38 i:/development/arm/gnu tools arm embedded/5.4 2016q2/bin/../lib/gcc/arm-none-eabi/5.4.1/../../../../arm-none-eabi/lib/fpu\libc.a(lib_a-fflush.o)
                0x01f2e32c                fflush
 .text          0x01f2e364        0x0 i:/development/arm/gnu tools arm embedded/5.4 2016q2/bin/../lib/gcc/arm-none-eabi/5.4.1/../../../../arm-none-eabi/lib/fpu\libc.a(lib_a-findfp.o)
 .text.__fp_unlock
                0x01f2e364        0x8 i:/development/arm/gnu tools arm embedded/5.4 2016q2/bin/../lib/gcc/arm-none-eabi/5.4.1/../../../../arm-none-eabi/lib/fpu\libc.a(lib_a-findfp.o)
 .text._cleanup_r
                0x01f2e36c       0x18 i:/development/arm/gnu tools arm embedded/5.4 2016q2/bin/../lib/gcc/arm-none-eabi/5.4.1/../../../../arm-none-eabi/lib/fpu\libc.a(lib_a-findfp.o)
                0x01f2e36c                _cleanup_r
 .text.__sinit.part.1
                0x01f2e384      0x160 i:/development/arm/gnu tools arm embedded/5.4 2016q2/bin/../lib/gcc/arm-none-eabi/5.4.1/../../../../arm-none-eabi/lib/fpu\libc.a(lib_a-findfp.o)
 .text.__fp_lock
                0x01f2e4e4        0x8 i:/development/arm/gnu tools arm embedded/5.4 2016q2/bin/../lib/gcc/arm-none-eabi/5.4.1/../../../../arm-none-eabi/lib/fpu\libc.a(lib_a-findfp.o)
 .text.__sfmoreglue
                0x01f2e4ec       0x50 i:/development/arm/gnu tools arm embedded/5.4 2016q2/bin/../lib/gcc/arm-none-eabi/5.4.1/../../../../arm-none-eabi/lib/fpu\libc.a(lib_a-findfp.o)
                0x01f2e4ec                __sfmoreglue
 .text.__sfp    0x01f2e53c       0xec i:/development/arm/gnu tools arm embedded/5.4 2016q2/bin/../lib/gcc/arm-none-eabi/5.4.1/../../../../arm-none-eabi/lib/fpu\libc.a(lib_a-findfp.o)
                0x01f2e53c                __sfp
 .text._cleanup
                0x01f2e628       0x24 i:/development/arm/gnu tools arm embedded/5.4 2016q2/bin/../lib/gcc/arm-none-eabi/5.4.1/../../../../arm-none-eabi/lib/fpu\libc.a(lib_a-findfp.o)
                0x01f2e628                _cleanup
 .text.__sinit  0x01f2e64c       0x10 i:/development/arm/gnu tools arm embedded/5.4 2016q2/bin/../lib/gcc/arm-none-eabi/5.4.1/../../../../arm-none-eabi/lib/fpu\libc.a(lib_a-findfp.o)
                0x01f2e64c                __sinit
 .text.__sfp_lock_acquire
                0x01f2e65c        0x4 i:/development/arm/gnu tools arm embedded/5.4 2016q2/bin/../lib/gcc/arm-none-eabi/5.4.1/../../../../arm-none-eabi/lib/fpu\libc.a(lib_a-findfp.o)
                0x01f2e65c                __sfp_lock_acquire
 .text.__sfp_lock_release
                0x01f2e660        0x4 i:/development/arm/gnu tools arm embedded/5.4 2016q2/bin/../lib/gcc/arm-none-eabi/5.4.1/../../../../arm-none-eabi/lib/fpu\libc.a(lib_a-findfp.o)
                0x01f2e660                __sfp_lock_release
 .text.__sinit_lock_acquire
                0x01f2e664        0x4 i:/development/arm/gnu tools arm embedded/5.4 2016q2/bin/../lib/gcc/arm-none-eabi/5.4.1/../../../../arm-none-eabi/lib/fpu\libc.a(lib_a-findfp.o)
                0x01f2e664                __sinit_lock_acquire
 .text.__sinit_lock_release
                0x01f2e668        0x4 i:/development/arm/gnu tools arm embedded/5.4 2016q2/bin/../lib/gcc/arm-none-eabi/5.4.1/../../../../arm-none-eabi/lib/fpu\libc.a(lib_a-findfp.o)
                0x01f2e668                __sinit_lock_release
 .text.__fp_lock_all
                0x01f2e66c       0x24 i:/development/arm/gnu tools arm embedded/5.4 2016q2/bin/../lib/gcc/arm-none-eabi/5.4.1/../../../../arm-none-eabi/lib/fpu\libc.a(lib_a-findfp.o)
                0x01f2e66c                __fp_lock_all
 .text.__fp_unlock_all
                0x01f2e690       0x24 i:/development/arm/gnu tools arm embedded/5.4 2016q2/bin/../lib/gcc/arm-none-eabi/5.4.1/../../../../arm-none-eabi/lib/fpu\libc.a(lib_a-findfp.o)
                0x01f2e690                __fp_unlock_all
 .text          0x01f2e6b4        0x0 i:/development/arm/gnu tools arm embedded/5.4 2016q2/bin/../lib/gcc/arm-none-eabi/5.4.1/../../../../arm-none-eabi/lib/fpu\libc.a(lib_a-freer.o)
 .text._malloc_trim_r
                0x01f2e6b4      0x100 i:/development/arm/gnu tools arm embedded/5.4 2016q2/bin/../lib/gcc/arm-none-eabi/5.4.1/../../../../arm-none-eabi/lib/fpu\libc.a(lib_a-freer.o)
                0x01f2e6b4                _malloc_trim_r
 .text._free_r  0x01f2e7b4      0x2ec i:/development/arm/gnu tools arm embedded/5.4 2016q2/bin/../lib/gcc/arm-none-eabi/5.4.1/../../../../arm-none-eabi/lib/fpu\libc.a(lib_a-freer.o)
                0x01f2e7b4                _free_r
 .text          0x01f2eaa0        0x0 i:/development/arm/gnu tools arm embedded/5.4 2016q2/bin/../lib/gcc/arm-none-eabi/5.4.1/../../../../arm-none-eabi/lib/fpu\libc.a(lib_a-fwalk.o)
 .text._fwalk   0x01f2eaa0       0x84 i:/development/arm/gnu tools arm embedded/5.4 2016q2/bin/../lib/gcc/arm-none-eabi/5.4.1/../../../../arm-none-eabi/lib/fpu\libc.a(lib_a-fwalk.o)
                0x01f2eaa0                _fwalk
 .text._fwalk_reent
                0x01f2eb24       0x8c i:/development/arm/gnu tools arm embedded/5.4 2016q2/bin/../lib/gcc/arm-none-eabi/5.4.1/../../../../arm-none-eabi/lib/fpu\libc.a(lib_a-fwalk.o)
                0x01f2eb24                _fwalk_reent
 .text          0x01f2ebb0        0x0 i:/development/arm/gnu tools arm embedded/5.4 2016q2/bin/../lib/gcc/arm-none-eabi/5.4.1/../../../../arm-none-eabi/lib/fpu\libc.a(lib_a-impure.o)
 .text          0x01f2ebb0        0x0 i:/development/arm/gnu tools arm embedded/5.4 2016q2/bin/../lib/gcc/arm-none-eabi/5.4.1/../../../../arm-none-eabi/lib/fpu\libc.a(lib_a-locale.o)
 .text._setlocale_r
                0x01f2ebb0       0x74 i:/development/arm/gnu tools arm embedded/5.4 2016q2/bin/../lib/gcc/arm-none-eabi/5.4.1/../../../../arm-none-eabi/lib/fpu\libc.a(lib_a-locale.o)
                0x01f2ebb0                _setlocale_r
 .text.__locale_charset
                0x01f2ec24        0xc i:/development/arm/gnu tools arm embedded/5.4 2016q2/bin/../lib/gcc/arm-none-eabi/5.4.1/../../../../arm-none-eabi/lib/fpu\libc.a(lib_a-locale.o)
                0x01f2ec24                __locale_charset
 .text.__locale_mb_cur_max
                0x01f2ec30       0x10 i:/development/arm/gnu tools arm embedded/5.4 2016q2/bin/../lib/gcc/arm-none-eabi/5.4.1/../../../../arm-none-eabi/lib/fpu\libc.a(lib_a-locale.o)
                0x01f2ec30                __locale_mb_cur_max
 .text.__locale_msgcharset
                0x01f2ec40        0xc i:/development/arm/gnu tools arm embedded/5.4 2016q2/bin/../lib/gcc/arm-none-eabi/5.4.1/../../../../arm-none-eabi/lib/fpu\libc.a(lib_a-locale.o)
                0x01f2ec40                __locale_msgcharset
 .text.__locale_cjk_lang
                0x01f2ec4c        0x8 i:/development/arm/gnu tools arm embedded/5.4 2016q2/bin/../lib/gcc/arm-none-eabi/5.4.1/../../../../arm-none-eabi/lib/fpu\libc.a(lib_a-locale.o)
                0x01f2ec4c                __locale_cjk_lang
 .text._localeconv_r
                0x01f2ec54        0xc i:/development/arm/gnu tools arm embedded/5.4 2016q2/bin/../lib/gcc/arm-none-eabi/5.4.1/../../../../arm-none-eabi/lib/fpu\libc.a(lib_a-locale.o)
                0x01f2ec54                _localeconv_r
 .text.setlocale
                0x01f2ec60       0x18 i:/development/arm/gnu tools arm embedded/5.4 2016q2/bin/../lib/gcc/arm-none-eabi/5.4.1/../../../../arm-none-eabi/lib/fpu\libc.a(lib_a-locale.o)
                0x01f2ec60                setlocale
 .text.localeconv
                0x01f2ec78        0xc i:/development/arm/gnu tools arm embedded/5.4 2016q2/bin/../lib/gcc/arm-none-eabi/5.4.1/../../../../arm-none-eabi/lib/fpu\libc.a(lib_a-locale.o)
                0x01f2ec78                localeconv
 .text          0x01f2ec84        0x0 i:/development/arm/gnu tools arm embedded/5.4 2016q2/bin/../lib/gcc/arm-none-eabi/5.4.1/../../../../arm-none-eabi/lib/fpu\libc.a(lib_a-makebuf.o)
 .text.__swhatbuf_r
                0x01f2ec84       0x94 i:/development/arm/gnu tools arm embedded/5.4 2016q2/bin/../lib/gcc/arm-none-eabi/5.4.1/../../../../arm-none-eabi/lib/fpu\libc.a(lib_a-makebuf.o)
                0x01f2ec84                __swhatbuf_r
 .text.__smakebuf_r
                0x01f2ed18       0xe8 i:/development/arm/gnu tools arm embedded/5.4 2016q2/bin/../lib/gcc/arm-none-eabi/5.4.1/../../../../arm-none-eabi/lib/fpu\libc.a(lib_a-makebuf.o)
                0x01f2ed18                __smakebuf_r
 .text          0x01f2ee00        0x0 i:/development/arm/gnu tools arm embedded/5.4 2016q2/bin/../lib/gcc/arm-none-eabi/5.4.1/../../../../arm-none-eabi/lib/fpu\libc.a(lib_a-memchr-stub.o)
 .text.memchr   0x01f2ee00      0x114 i:/development/arm/gnu tools arm embedded/5.4 2016q2/bin/../lib/gcc/arm-none-eabi/5.4.1/../../../../arm-none-eabi/lib/fpu\libc.a(lib_a-memchr-stub.o)
                0x01f2ee00                memchr
 .text          0x01f2ef14        0x0 i:/development/arm/gnu tools arm embedded/5.4 2016q2/bin/../lib/gcc/arm-none-eabi/5.4.1/../../../../arm-none-eabi/lib/fpu\libc.a(lib_a-mprec.o)
 .text._Balloc  0x01f2ef14       0x90 i:/development/arm/gnu tools arm embedded/5.4 2016q2/bin/../lib/gcc/arm-none-eabi/5.4.1/../../../../arm-none-eabi/lib/fpu\libc.a(lib_a-mprec.o)
                0x01f2ef14                _Balloc
 .text._Bfree   0x01f2efa4       0x1c i:/development/arm/gnu tools arm embedded/5.4 2016q2/bin/../lib/gcc/arm-none-eabi/5.4.1/../../../../arm-none-eabi/lib/fpu\libc.a(lib_a-mprec.o)
                0x01f2efa4                _Bfree
 .text.__multadd
                0x01f2efc0       0xdc i:/development/arm/gnu tools arm embedded/5.4 2016q2/bin/../lib/gcc/arm-none-eabi/5.4.1/../../../../arm-none-eabi/lib/fpu\libc.a(lib_a-mprec.o)
                0x01f2efc0                __multadd
 .text.__s2b    0x01f2f09c       0xe8 i:/development/arm/gnu tools arm embedded/5.4 2016q2/bin/../lib/gcc/arm-none-eabi/5.4.1/../../../../arm-none-eabi/lib/fpu\libc.a(lib_a-mprec.o)
                0x01f2f09c                __s2b
 .text.__hi0bits
                0x01f2f184       0x5c i:/development/arm/gnu tools arm embedded/5.4 2016q2/bin/../lib/gcc/arm-none-eabi/5.4.1/../../../../arm-none-eabi/lib/fpu\libc.a(lib_a-mprec.o)
                0x01f2f184                __hi0bits
 .text.__lo0bits
                0x01f2f1e0       0x94 i:/development/arm/gnu tools arm embedded/5.4 2016q2/bin/../lib/gcc/arm-none-eabi/5.4.1/../../../../arm-none-eabi/lib/fpu\libc.a(lib_a-mprec.o)
                0x01f2f1e0                __lo0bits
 .text.__i2b    0x01f2f274       0x24 i:/development/arm/gnu tools arm embedded/5.4 2016q2/bin/../lib/gcc/arm-none-eabi/5.4.1/../../../../arm-none-eabi/lib/fpu\libc.a(lib_a-mprec.o)
                0x01f2f274                __i2b
 .text.__multiply
                0x01f2f298      0x1f0 i:/development/arm/gnu tools arm embedded/5.4 2016q2/bin/../lib/gcc/arm-none-eabi/5.4.1/../../../../arm-none-eabi/lib/fpu\libc.a(lib_a-mprec.o)
                0x01f2f298                __multiply
 .text.__pow5mult
                0x01f2f488      0x104 i:/development/arm/gnu tools arm embedded/5.4 2016q2/bin/../lib/gcc/arm-none-eabi/5.4.1/../../../../arm-none-eabi/lib/fpu\libc.a(lib_a-mprec.o)
                0x01f2f488                __pow5mult
 .text.__lshift
                0x01f2f58c       0xf4 i:/development/arm/gnu tools arm embedded/5.4 2016q2/bin/../lib/gcc/arm-none-eabi/5.4.1/../../../../arm-none-eabi/lib/fpu\libc.a(lib_a-mprec.o)
                0x01f2f58c                __lshift
 .text.__mcmp   0x01f2f680       0x64 i:/development/arm/gnu tools arm embedded/5.4 2016q2/bin/../lib/gcc/arm-none-eabi/5.4.1/../../../../arm-none-eabi/lib/fpu\libc.a(lib_a-mprec.o)
                0x01f2f680                __mcmp
 .text.__mdiff  0x01f2f6e4      0x1b0 i:/development/arm/gnu tools arm embedded/5.4 2016q2/bin/../lib/gcc/arm-none-eabi/5.4.1/../../../../arm-none-eabi/lib/fpu\libc.a(lib_a-mprec.o)
                0x01f2f6e4                __mdiff
 .text.__ulp    0x01f2f894       0x78 i:/development/arm/gnu tools arm embedded/5.4 2016q2/bin/../lib/gcc/arm-none-eabi/5.4.1/../../../../arm-none-eabi/lib/fpu\libc.a(lib_a-mprec.o)
                0x01f2f894                __ulp
 .text.__b2d    0x01f2f90c       0xdc i:/development/arm/gnu tools arm embedded/5.4 2016q2/bin/../lib/gcc/arm-none-eabi/5.4.1/../../../../arm-none-eabi/lib/fpu\libc.a(lib_a-mprec.o)
                0x01f2f90c                __b2d
 .text.__d2b    0x01f2f9e8      0x10c i:/development/arm/gnu tools arm embedded/5.4 2016q2/bin/../lib/gcc/arm-none-eabi/5.4.1/../../../../arm-none-eabi/lib/fpu\libc.a(lib_a-mprec.o)
                0x01f2f9e8                __d2b
 .text.__ratio  0x01f2faf4       0x84 i:/development/arm/gnu tools arm embedded/5.4 2016q2/bin/../lib/gcc/arm-none-eabi/5.4.1/../../../../arm-none-eabi/lib/fpu\libc.a(lib_a-mprec.o)
                0x01f2faf4                __ratio
 .text._mprec_log10
                0x01f2fb78       0x44 i:/development/arm/gnu tools arm embedded/5.4 2016q2/bin/../lib/gcc/arm-none-eabi/5.4.1/../../../../arm-none-eabi/lib/fpu\libc.a(lib_a-mprec.o)
                0x01f2fb78                _mprec_log10
 .text.__copybits
                0x01f2fbbc       0x70 i:/development/arm/gnu tools arm embedded/5.4 2016q2/bin/../lib/gcc/arm-none-eabi/5.4.1/../../../../arm-none-eabi/lib/fpu\libc.a(lib_a-mprec.o)
                0x01f2fbbc                __copybits
 .text.__any_on
                0x01f2fc2c       0x80 i:/development/arm/gnu tools arm embedded/5.4 2016q2/bin/../lib/gcc/arm-none-eabi/5.4.1/../../../../arm-none-eabi/lib/fpu\libc.a(lib_a-mprec.o)
                0x01f2fc2c                __any_on
 .text          0x01f2fcac        0x0 i:/development/arm/gnu tools arm embedded/5.4 2016q2/bin/../lib/gcc/arm-none-eabi/5.4.1/../../../../arm-none-eabi/lib/fpu\libc.a(lib_a-stdio.o)
 .text.__sread  0x01f2fcac       0x34 i:/development/arm/gnu tools arm embedded/5.4 2016q2/bin/../lib/gcc/arm-none-eabi/5.4.1/../../../../arm-none-eabi/lib/fpu\libc.a(lib_a-stdio.o)
                0x01f2fcac                __sread
 .text.__seofread
                0x01f2fce0        0x8 i:/development/arm/gnu tools arm embedded/5.4 2016q2/bin/../lib/gcc/arm-none-eabi/5.4.1/../../../../arm-none-eabi/lib/fpu\libc.a(lib_a-stdio.o)
                0x01f2fce0                __seofread
 .text.__swrite
                0x01f2fce8       0x58 i:/development/arm/gnu tools arm embedded/5.4 2016q2/bin/../lib/gcc/arm-none-eabi/5.4.1/../../../../arm-none-eabi/lib/fpu\libc.a(lib_a-stdio.o)
                0x01f2fce8                __swrite
 .text.__sseek  0x01f2fd40       0x30 i:/development/arm/gnu tools arm embedded/5.4 2016q2/bin/../lib/gcc/arm-none-eabi/5.4.1/../../../../arm-none-eabi/lib/fpu\libc.a(lib_a-stdio.o)
                0x01f2fd40                __sseek
 .text.__sclose
                0x01f2fd70       0x14 i:/development/arm/gnu tools arm embedded/5.4 2016q2/bin/../lib/gcc/arm-none-eabi/5.4.1/../../../../arm-none-eabi/lib/fpu\libc.a(lib_a-stdio.o)
                0x01f2fd70                __sclose
 .text          0x01f2fd84        0x0 i:/development/arm/gnu tools arm embedded/5.4 2016q2/bin/../lib/gcc/arm-none-eabi/5.4.1/../../../../arm-none-eabi/lib/fpu\libc.a(lib_a-strchr.o)
 .text.strchr   0x01f2fd84      0x168 i:/development/arm/gnu tools arm embedded/5.4 2016q2/bin/../lib/gcc/arm-none-eabi/5.4.1/../../../../arm-none-eabi/lib/fpu\libc.a(lib_a-strchr.o)
                0x01f2fd84                strchr
 .text          0x01f2feec      0x224 i:/development/arm/gnu tools arm embedded/5.4 2016q2/bin/../lib/gcc/arm-none-eabi/5.4.1/../../../../arm-none-eabi/lib/fpu\libc.a(lib_a-strcmp.o)
                0x01f2feec                strcmp
 .text          0x01f30110        0x0 i:/development/arm/gnu tools arm embedded/5.4 2016q2/bin/../lib/gcc/arm-none-eabi/5.4.1/../../../../arm-none-eabi/lib/fpu\libc.a(lib_a-svfiprintf.o)
 .text.__ssprint_r
                0x01f30110      0x1b0 i:/development/arm/gnu tools arm embedded/5.4 2016q2/bin/../lib/gcc/arm-none-eabi/5.4.1/../../../../arm-none-eabi/lib/fpu\libc.a(lib_a-svfiprintf.o)
                0x01f30110                __ssprint_r
 .text._svfiprintf_r
                0x01f302c0     0x12b0 i:/development/arm/gnu tools arm embedded/5.4 2016q2/bin/../lib/gcc/arm-none-eabi/5.4.1/../../../../arm-none-eabi/lib/fpu\libc.a(lib_a-svfiprintf.o)
                0x01f302c0                _svfiprintf_r
 .text          0x01f31570        0x0 i:/development/arm/gnu tools arm embedded/5.4 2016q2/bin/../lib/gcc/arm-none-eabi/5.4.1/../../../../arm-none-eabi/lib/fpu\libc.a(lib_a-vfiprintf.o)
 .text.__sprint_r.part.0
                0x01f31570       0xac i:/development/arm/gnu tools arm embedded/5.4 2016q2/bin/../lib/gcc/arm-none-eabi/5.4.1/../../../../arm-none-eabi/lib/fpu\libc.a(lib_a-vfiprintf.o)
 .text.__sprint_r
                0x01f3161c       0x18 i:/development/arm/gnu tools arm embedded/5.4 2016q2/bin/../lib/gcc/arm-none-eabi/5.4.1/../../../../arm-none-eabi/lib/fpu\libc.a(lib_a-vfiprintf.o)
                0x01f3161c                __sprint_r
 .text._vfiprintf_r
                0x01f31634     0x1560 i:/development/arm/gnu tools arm embedded/5.4 2016q2/bin/../lib/gcc/arm-none-eabi/5.4.1/../../../../arm-none-eabi/lib/fpu\libc.a(lib_a-vfiprintf.o)
                0x01f31634                _vfiprintf_r
 .text.vfiprintf
                0x01f32b94       0x1c i:/development/arm/gnu tools arm embedded/5.4 2016q2/bin/../lib/gcc/arm-none-eabi/5.4.1/../../../../arm-none-eabi/lib/fpu\libc.a(lib_a-vfiprintf.o)
                0x01f32b94                vfiprintf
 .text.__sbprintf
                0x01f32bb0       0xac i:/development/arm/gnu tools arm embedded/5.4 2016q2/bin/../lib/gcc/arm-none-eabi/5.4.1/../../../../arm-none-eabi/lib/fpu\libc.a(lib_a-vfiprintf.o)
 .text          0x01f32c5c        0x0 i:/development/arm/gnu tools arm embedded/5.4 2016q2/bin/../lib/gcc/arm-none-eabi/5.4.1/../../../../arm-none-eabi/lib/fpu\libc.a(lib_a-writer.o)
 .text._write_r
                0x01f32c5c       0x48 i:/development/arm/gnu tools arm embedded/5.4 2016q2/bin/../lib/gcc/arm-none-eabi/5.4.1/../../../../arm-none-eabi/lib/fpu\libc.a(lib_a-writer.o)
                0x01f32c5c                _write_r
 .text          0x01f32ca4        0x0 i:/development/arm/gnu tools arm embedded/5.4 2016q2/bin/../lib/gcc/arm-none-eabi/5.4.1/../../../../arm-none-eabi/lib/fpu\libc.a(lib_a-callocr.o)
 .text._calloc_r
                0x01f32ca4       0x98 i:/development/arm/gnu tools arm embedded/5.4 2016q2/bin/../lib/gcc/arm-none-eabi/5.4.1/../../../../arm-none-eabi/lib/fpu\libc.a(lib_a-callocr.o)
                0x01f32ca4                _calloc_r
 .text          0x01f32d3c        0x0 i:/development/arm/gnu tools arm embedded/5.4 2016q2/bin/../lib/gcc/arm-none-eabi/5.4.1/../../../../arm-none-eabi/lib/fpu\libc.a(lib_a-closer.o)
 .text._close_r
                0x01f32d3c       0x3c i:/development/arm/gnu tools arm embedded/5.4 2016q2/bin/../lib/gcc/arm-none-eabi/5.4.1/../../../../arm-none-eabi/lib/fpu\libc.a(lib_a-closer.o)
                0x01f32d3c                _close_r
 .text          0x01f32d78        0x0 i:/development/arm/gnu tools arm embedded/5.4 2016q2/bin/../lib/gcc/arm-none-eabi/5.4.1/../../../../arm-none-eabi/lib/fpu\libc.a(lib_a-fclose.o)
 .text._fclose_r
                0x01f32d78       0xfc i:/development/arm/gnu tools arm embedded/5.4 2016q2/bin/../lib/gcc/arm-none-eabi/5.4.1/../../../../arm-none-eabi/lib/fpu\libc.a(lib_a-fclose.o)
                0x01f32d78                _fclose_r
 .text.fclose   0x01f32e74       0x14 i:/development/arm/gnu tools arm embedded/5.4 2016q2/bin/../lib/gcc/arm-none-eabi/5.4.1/../../../../arm-none-eabi/lib/fpu\libc.a(lib_a-fclose.o)
                0x01f32e74                fclose
 .text          0x01f32e88        0x0 i:/development/arm/gnu tools arm embedded/5.4 2016q2/bin/../lib/gcc/arm-none-eabi/5.4.1/../../../../arm-none-eabi/lib/fpu\libc.a(lib_a-fputwc.o)
 .text.__fputwc
                0x01f32e88      0x110 i:/development/arm/gnu tools arm embedded/5.4 2016q2/bin/../lib/gcc/arm-none-eabi/5.4.1/../../../../arm-none-eabi/lib/fpu\libc.a(lib_a-fputwc.o)
                0x01f32e88                __fputwc
 .text._fputwc_r
                0x01f32f98       0x20 i:/development/arm/gnu tools arm embedded/5.4 2016q2/bin/../lib/gcc/arm-none-eabi/5.4.1/../../../../arm-none-eabi/lib/fpu\libc.a(lib_a-fputwc.o)
                0x01f32f98                _fputwc_r
 .text.fputwc   0x01f32fb8       0x68 i:/development/arm/gnu tools arm embedded/5.4 2016q2/bin/../lib/gcc/arm-none-eabi/5.4.1/../../../../arm-none-eabi/lib/fpu\libc.a(lib_a-fputwc.o)
                0x01f32fb8                fputwc
 .text          0x01f33020        0x0 i:/development/arm/gnu tools arm embedded/5.4 2016q2/bin/../lib/gcc/arm-none-eabi/5.4.1/../../../../arm-none-eabi/lib/fpu\libc.a(lib_a-fstatr.o)
 .text._fstat_r
                0x01f33020       0x44 i:/development/arm/gnu tools arm embedded/5.4 2016q2/bin/../lib/gcc/arm-none-eabi/5.4.1/../../../../arm-none-eabi/lib/fpu\libc.a(lib_a-fstatr.o)
                0x01f33020                _fstat_r
 .text          0x01f33064        0x0 i:/development/arm/gnu tools arm embedded/5.4 2016q2/bin/../lib/gcc/arm-none-eabi/5.4.1/../../../../arm-none-eabi/lib/fpu\libc.a(lib_a-fvwrite.o)
 .text.__sfvwrite_r
                0x01f33064      0x4c8 i:/development/arm/gnu tools arm embedded/5.4 2016q2/bin/../lib/gcc/arm-none-eabi/5.4.1/../../../../arm-none-eabi/lib/fpu\libc.a(lib_a-fvwrite.o)
                0x01f33064                __sfvwrite_r
 .text          0x01f3352c        0x0 i:/development/arm/gnu tools arm embedded/5.4 2016q2/bin/../lib/gcc/arm-none-eabi/5.4.1/../../../../arm-none-eabi/lib/fpu\libc.a(lib_a-isattyr.o)
 .text._isatty_r
                0x01f3352c       0x3c i:/development/arm/gnu tools arm embedded/5.4 2016q2/bin/../lib/gcc/arm-none-eabi/5.4.1/../../../../arm-none-eabi/lib/fpu\libc.a(lib_a-isattyr.o)
                0x01f3352c                _isatty_r
 .text          0x01f33568        0x0 i:/development/arm/gnu tools arm embedded/5.4 2016q2/bin/../lib/gcc/arm-none-eabi/5.4.1/../../../../arm-none-eabi/lib/fpu\libc.a(lib_a-lseekr.o)
 .text._lseek_r
                0x01f33568       0x48 i:/development/arm/gnu tools arm embedded/5.4 2016q2/bin/../lib/gcc/arm-none-eabi/5.4.1/../../../../arm-none-eabi/lib/fpu\libc.a(lib_a-lseekr.o)
                0x01f33568                _lseek_r
 .text          0x01f335b0        0x0 i:/development/arm/gnu tools arm embedded/5.4 2016q2/bin/../lib/gcc/arm-none-eabi/5.4.1/../../../../arm-none-eabi/lib/fpu\libc.a(lib_a-memmove.o)
 .text.memmove  0x01f335b0      0x12c i:/development/arm/gnu tools arm embedded/5.4 2016q2/bin/../lib/gcc/arm-none-eabi/5.4.1/../../../../arm-none-eabi/lib/fpu\libc.a(lib_a-memmove.o)
                0x01f335b0                memmove
 .text          0x01f336dc        0x0 i:/development/arm/gnu tools arm embedded/5.4 2016q2/bin/../lib/gcc/arm-none-eabi/5.4.1/../../../../arm-none-eabi/lib/fpu\libc.a(lib_a-readr.o)
 .text._read_r  0x01f336dc       0x48 i:/development/arm/gnu tools arm embedded/5.4 2016q2/bin/../lib/gcc/arm-none-eabi/5.4.1/../../../../arm-none-eabi/lib/fpu\libc.a(lib_a-readr.o)
                0x01f336dc                _read_r
 .text          0x01f33724        0x0 i:/development/arm/gnu tools arm embedded/5.4 2016q2/bin/../lib/gcc/arm-none-eabi/5.4.1/../../../../arm-none-eabi/lib/fpu\libc.a(lib_a-reallocr.o)
 .text._realloc_r
                0x01f33724      0x580 i:/development/arm/gnu tools arm embedded/5.4 2016q2/bin/../lib/gcc/arm-none-eabi/5.4.1/../../../../arm-none-eabi/lib/fpu\libc.a(lib_a-reallocr.o)
                0x01f33724                _realloc_r
 .text          0x01f33ca4        0x0 i:/development/arm/gnu tools arm embedded/5.4 2016q2/bin/../lib/gcc/arm-none-eabi/5.4.1/../../../../arm-none-eabi/lib/fpu\libc.a(lib_a-wbuf.o)
 .text.__swbuf_r
                0x01f33ca4      0x130 i:/development/arm/gnu tools arm embedded/5.4 2016q2/bin/../lib/gcc/arm-none-eabi/5.4.1/../../../../arm-none-eabi/lib/fpu\libc.a(lib_a-wbuf.o)
                0x01f33ca4                __swbuf_r
 .text.__swbuf  0x01f33dd4       0x18 i:/development/arm/gnu tools arm embedded/5.4 2016q2/bin/../lib/gcc/arm-none-eabi/5.4.1/../../../../arm-none-eabi/lib/fpu\libc.a(lib_a-wbuf.o)
                0x01f33dd4                __swbuf
 .text          0x01f33dec        0x0 i:/development/arm/gnu tools arm embedded/5.4 2016q2/bin/../lib/gcc/arm-none-eabi/5.4.1/../../../../arm-none-eabi/lib/fpu\libc.a(lib_a-wcrtomb.o)
 .text._wcrtomb_r
                0x01f33dec       0x94 i:/development/arm/gnu tools arm embedded/5.4 2016q2/bin/../lib/gcc/arm-none-eabi/5.4.1/../../../../arm-none-eabi/lib/fpu\libc.a(lib_a-wcrtomb.o)
                0x01f33dec                _wcrtomb_r
 .text.wcrtomb  0x01f33e80       0x9c i:/development/arm/gnu tools arm embedded/5.4 2016q2/bin/../lib/gcc/arm-none-eabi/5.4.1/../../../../arm-none-eabi/lib/fpu\libc.a(lib_a-wcrtomb.o)
                0x01f33e80                wcrtomb
 .text          0x01f33f1c        0x0 i:/development/arm/gnu tools arm embedded/5.4 2016q2/bin/../lib/gcc/arm-none-eabi/5.4.1/../../../../arm-none-eabi/lib/fpu\libc.a(lib_a-wctomb_r.o)
 .text.__ascii_wctomb
                0x01f33f1c       0x28 i:/development/arm/gnu tools arm embedded/5.4 2016q2/bin/../lib/gcc/arm-none-eabi/5.4.1/../../../../arm-none-eabi/lib/fpu\libc.a(lib_a-wctomb_r.o)
                0x01f33f1c                __ascii_wctomb
 .text._wctomb_r
                0x01f33f44       0x50 i:/development/arm/gnu tools arm embedded/5.4 2016q2/bin/../lib/gcc/arm-none-eabi/5.4.1/../../../../arm-none-eabi/lib/fpu\libc.a(lib_a-wctomb_r.o)
                0x01f33f44                _wctomb_r
 .text          0x01f33f94      0x114 i:/development/arm/gnu tools arm embedded/5.4 2016q2/bin/../lib/gcc/arm-none-eabi/5.4.1/fpu\libgcc.a(_udivsi3.o)
                0x01f33f94                __aeabi_uidiv
                0x01f33f94                __udivsi3
                0x01f34088                __aeabi_uidivmod
 .text          0x01f340a8      0x148 i:/development/arm/gnu tools arm embedded/5.4 2016q2/bin/../lib/gcc/arm-none-eabi/5.4.1/fpu\libgcc.a(_divsi3.o)
                0x01f340a8                __divsi3
                0x01f340a8                __aeabi_idiv
                0x01f341d0                __aeabi_idivmod
 *(.gnu.warning)
 *(.glue_7t)
 .glue_7t       0x01f341f0        0x0 linker stubs
 *(.glue_7)
 .glue_7        0x01f341f0        0x0 linker stubs
 *(.vfp11_veneer)
 .vfp11_veneer  0x01f341f0        0x0 linker stubs
 *(.v4_bx)
 .v4_bx         0x01f341f0        0x0 linker stubs

.fini
 *(.fini)
                [!provide]                PROVIDE (__etext, .)
                [!provide]                PROVIDE (_etext, .)
                [!provide]                PROVIDE (etext, .)

.rodata         0x01f341f0     0x3638
 *(.rodata .rodata.* .gnu.linkonce.r.*)
 .rodata.str1.4
                0x01f341f0      0x114 src/exception.o
                                0x118 (size before relaxing)
 .rodata.str1.4
                0x01f34304       0x24 src/main.o
                                 0x28 (size before relaxing)
 .rodata        0x01f34328       0x8d src/ff.o
 *fill*         0x01f343b5        0x3 
 .rodata.str1.4
                0x01f343b8       0x1f src/ff.o
 *fill*         0x01f343d7        0x1 
 .rodata._ZTV8Keyboard
                0x01f343d8       0x10 src/Keyboard.o
                0x01f343d8                vtable for Keyboard
 .rodata        0x01f343e8      0x200 src/Keyboard.o
 .rodata        0x01f345e8      0x200 src/emmc.o
                0x01f345e8                CEMMCDevice::sd_acommands
                0x01f346e8                CEMMCDevice::sd_commands
 .rodata.str1.4
                0x01f347e8       0x31 src/emmc.o
 *fill*         0x01f34819        0x3 
 .rodata.str1.4
                0x01f3481c        0x7 src/terminal.o
                                  0xb (size before relaxing)
 *fill*         0x01f34823        0x5 
 .rodata.avpriv_cga_font
                0x01f34828      0x800 src/font_data.o
                0x01f34828                avpriv_cga_font
 .rodata.avpriv_vga16_font
                0x01f35028     0x1000 src/font_data.o
                0x01f35028                avpriv_vga16_font
 .rodata.font8x8_basic
                0x01f36028      0x400 src/font_data.o
                0x01f36028                font8x8_basic
 .rodata.str1.4
                0x01f36428      0x275 src/basic.o
                                0x281 (size before relaxing)
 *fill*         0x01f3669d        0x3 
 .rodata.FromUSPi
                0x01f366a0        0x5 uspi/libuspi.a(uspilibrary.o)
 *fill*         0x01f366a5        0x3 
 .rodata.str1.4
                0x01f366a8       0x8e uspi/libuspi.a(uspilibrary.o)
 *fill*         0x01f36736        0x2 
 .rodata.FromDWHCI
                0x01f36738        0x6 uspi/libuspi.a(dwhcidevice.o)
 *fill*         0x01f3673e        0x2 
 .rodata.str1.4
                0x01f36740       0xc9 uspi/libuspi.a(dwhcidevice.o)
 *fill*         0x01f36809        0x7 
 .rodata.CSWTCH.34
                0x01f36810        0x3 uspi/libuspi.a(dwhcidevice.o)
 *fill*         0x01f36813        0x5 
 .rodata.FromDevice
                0x01f36818        0x7 uspi/libuspi.a(usbdevice.o)
 *fill*         0x01f3681f        0x1 
 .rodata.str1.4
                0x01f36820      0x148 uspi/libuspi.a(usbdevice.o)
                                0x150 (size before relaxing)
 .rodata.str1.4
                0x01f36968       0x1e uspi/libuspi.a(macaddress.o)
 *fill*         0x01f36986        0x2 
 .rodata.str1.4
                0x01f36988       0x92 uspi/libuspi.a(smsc951x.o)
 *fill*         0x01f36a1a        0x6 
 .rodata.FromSMSC951x
                0x01f36a20        0x9 uspi/libuspi.a(smsc951x.o)
 *fill*         0x01f36a29        0x3 
 .rodata.str1.4
                0x01f36a2c       0x9c uspi/libuspi.a(lan7800.o)
                                 0xea (size before relaxing)
 .rodata.FromLAN7800
                0x01f36ac8        0x8 uspi/libuspi.a(lan7800.o)
 .rodata.str1.4
                0x01f36ad0        0x1 uspi/libuspi.a(string.o)
 .rodata.FromUmsd
                0x01f36ad0        0x5 uspi/libuspi.a(usbmassdevice.o)
 *fill*         0x01f36ad5        0x3 
 .rodata.str1.4
                0x01f36ad8      0x1c4 uspi/libuspi.a(usbmassdevice.o)
                                0x1e8 (size before relaxing)
 .rodata.str1.4
                0x01f36c9c       0x1c uspi/libuspi.a(dwhciframeschednper.o)
 .rodata.str1.4
                0x01f36cb8       0x1c uspi/libuspi.a(dwhciframeschedper.o)
 .rodata.str1.4
                0x01f36cb8       0x3b uspi/libuspi.a(usbkeyboard.o)
                                 0x57 (size before relaxing)
 *fill*         0x01f36cf3        0x5 
 .rodata.FromUSBKbd
                0x01f36cf8        0x7 uspi/libuspi.a(usbkeyboard.o)
 *fill*         0x01f36cff        0x1 
 .rodata.FromDWHCIRoot
                0x01f36d00        0x7 uspi/libuspi.a(dwhcirootport.o)
 *fill*         0x01f36d07        0x1 
 .rodata.str1.4
                0x01f36d08       0x87 uspi/libuspi.a(dwhcirootport.o)
 *fill*         0x01f36d8f        0x1 
 .rodata.str1.4
                0x01f36d90        0x9 uspi/libuspi.a(usbmouse.o)
                                 0x59 (size before relaxing)
 *fill*         0x01f36d99        0x7 
 .rodata.FromUSBKbd
                0x01f36da0        0x7 uspi/libuspi.a(usbmouse.o)
 *fill*         0x01f36da7        0x1 
 .rodata.leds.5753
                0x01f36da8        0x5 uspi/libuspi.a(usbgamepad.o)
 *fill*         0x01f36dad        0x3 
 .rodata.FromUSBPad
                0x01f36db0        0x7 uspi/libuspi.a(usbgamepad.o)
 *fill*         0x01f36db7        0x1 
 .rodata.str1.4
                0x01f36db8       0x21 uspi/libuspi.a(usbgamepad.o)
                                 0x5f (size before relaxing)
 *fill*         0x01f36dd9        0x3 
 .rodata.str1.4
                0x01f36ddc        0x8 uspi/libuspi.a(usbmidi.o)
                                 0x24 (size before relaxing)
 *fill*         0x01f36de4        0x4 
 .rodata.cin_to_length
                0x01f36de8       0x40 uspi/libuspi.a(usbmidi.o)
 .rodata.FromMIDI
                0x01f36e28        0x6 uspi/libuspi.a(usbmidi.o)
 *fill*         0x01f36e2e        0x2 
 .rodata.str1.4
                0x01f36e30       0x2f uspi/libuspi.a(usbconfigparser.o)
 *fill*         0x01f36e5f        0x1 
 .rodata.str1.4
                0x01f36e60       0x77 uspi/libuspi.a(usbdevicefactory.o)
 *fill*         0x01f36ed7        0x1 
 .rodata.FromHub
                0x01f36ed8        0x7 uspi/libuspi.a(usbstandardhub.o)
 *fill*         0x01f36edf        0x1 
 .rodata.str1.4
                0x01f36ee0      0x1a8 uspi/libuspi.a(usbstandardhub.o)
                                0x1e4 (size before relaxing)
 .rodata.s_DefaultMap
                0x01f37088      0x400 uspi/libuspi.a(keymap.o)
 .rodata.str1.4
                0x01f37488       0xca uspi/libuspi.a(keymap.o)
                                 0xde (size before relaxing)
 *fill*         0x01f37552        0x6 
 .rodata.s_KeyStrings
                0x01f37558       0xcc uspi/libuspi.a(keymap.o)
 .rodata.blanks.7057
                0x01f37624       0x10 i:/development/arm/gnu tools arm embedded/5.4 2016q2/bin/../lib/gcc/arm-none-eabi/5.4.1/../../../../arm-none-eabi/lib/fpu\libc.a(lib_a-svfprintf.o)
 .rodata.str1.4
                0x01f37634       0x3f i:/development/arm/gnu tools arm embedded/5.4 2016q2/bin/../lib/gcc/arm-none-eabi/5.4.1/../../../../arm-none-eabi/lib/fpu\libc.a(lib_a-svfprintf.o)
                                 0x42 (size before relaxing)
 *fill*         0x01f37673        0x1 
 .rodata.zeroes.7058
                0x01f37674       0x10 i:/development/arm/gnu tools arm embedded/5.4 2016q2/bin/../lib/gcc/arm-none-eabi/5.4.1/../../../../arm-none-eabi/lib/fpu\libc.a(lib_a-svfprintf.o)
 .rodata.blanks.7072
                0x01f37684       0x10 i:/development/arm/gnu tools arm embedded/5.4 2016q2/bin/../lib/gcc/arm-none-eabi/5.4.1/../../../../arm-none-eabi/lib/fpu\libc.a(lib_a-vfprintf.o)
 .rodata.str1.4
                0x01f37694       0x42 i:/development/arm/gnu tools arm embedded/5.4 2016q2/bin/../lib/gcc/arm-none-eabi/5.4.1/../../../../arm-none-eabi/lib/fpu\libc.a(lib_a-vfprintf.o)
 .rodata.zeroes.7073
                0x01f37694       0x10 i:/development/arm/gnu tools arm embedded/5.4 2016q2/bin/../lib/gcc/arm-none-eabi/5.4.1/../../../../arm-none-eabi/lib/fpu\libc.a(lib_a-vfprintf.o)
 .rodata.str1.4
                0x01f376a4       0x10 i:/development/arm/gnu tools arm embedded/5.4 2016q2/bin/../lib/gcc/arm-none-eabi/5.4.1/../../../../arm-none-eabi/lib/fpu\libc.a(lib_a-dtoa.o)
                                 0x12 (size before relaxing)
 .rodata.str1.4
                0x01f376b4        0x2 i:/development/arm/gnu tools arm embedded/5.4 2016q2/bin/../lib/gcc/arm-none-eabi/5.4.1/../../../../arm-none-eabi/lib/fpu\libc.a(lib_a-impure.o)
 *fill*         0x01f376b6        0x2 
 .rodata._global_impure_ptr
                0x01f376b8        0x4 i:/development/arm/gnu tools arm embedded/5.4 2016q2/bin/../lib/gcc/arm-none-eabi/5.4.1/../../../../arm-none-eabi/lib/fpu\libc.a(lib_a-impure.o)
                0x01f376b8                _global_impure_ptr
 .rodata.str1.4
                0x01f376bc        0x8 i:/development/arm/gnu tools arm embedded/5.4 2016q2/bin/../lib/gcc/arm-none-eabi/5.4.1/../../../../arm-none-eabi/lib/fpu\libc.a(lib_a-locale.o)
                                 0x12 (size before relaxing)
 .rodata.p05.5398
                0x01f376c4        0xc i:/development/arm/gnu tools arm embedded/5.4 2016q2/bin/../lib/gcc/arm-none-eabi/5.4.1/../../../../arm-none-eabi/lib/fpu\libc.a(lib_a-mprec.o)
 .rodata.__mprec_tens
                0x01f376d0       0xc8 i:/development/arm/gnu tools arm embedded/5.4 2016q2/bin/../lib/gcc/arm-none-eabi/5.4.1/../../../../arm-none-eabi/lib/fpu\libc.a(lib_a-mprec.o)
                0x01f376d0                __mprec_tens
 .rodata.__mprec_bigtens
                0x01f37798       0x28 i:/development/arm/gnu tools arm embedded/5.4 2016q2/bin/../lib/gcc/arm-none-eabi/5.4.1/../../../../arm-none-eabi/lib/fpu\libc.a(lib_a-mprec.o)
                0x01f37798                __mprec_bigtens
 .rodata.__mprec_tinytens
                0x01f377c0       0x28 i:/development/arm/gnu tools arm embedded/5.4 2016q2/bin/../lib/gcc/arm-none-eabi/5.4.1/../../../../arm-none-eabi/lib/fpu\libc.a(lib_a-mprec.o)
                0x01f377c0                __mprec_tinytens
 .rodata.blanks.7001
                0x01f377e8       0x10 i:/development/arm/gnu tools arm embedded/5.4 2016q2/bin/../lib/gcc/arm-none-eabi/5.4.1/../../../../arm-none-eabi/lib/fpu\libc.a(lib_a-svfiprintf.o)
 .rodata.str1.4
                0x01f377f8       0x2f i:/development/arm/gnu tools arm embedded/5.4 2016q2/bin/../lib/gcc/arm-none-eabi/5.4.1/../../../../arm-none-eabi/lib/fpu\libc.a(lib_a-svfiprintf.o)
 .rodata.zeroes.7002
                0x01f377f8       0x10 i:/development/arm/gnu tools arm embedded/5.4 2016q2/bin/../lib/gcc/arm-none-eabi/5.4.1/../../../../arm-none-eabi/lib/fpu\libc.a(lib_a-svfiprintf.o)
 .rodata.blanks.7015
                0x01f37808       0x10 i:/development/arm/gnu tools arm embedded/5.4 2016q2/bin/../lib/gcc/arm-none-eabi/5.4.1/../../../../arm-none-eabi/lib/fpu\libc.a(lib_a-vfiprintf.o)
 .rodata.str1.4
                0x01f37818       0x2f i:/development/arm/gnu tools arm embedded/5.4 2016q2/bin/../lib/gcc/arm-none-eabi/5.4.1/../../../../arm-none-eabi/lib/fpu\libc.a(lib_a-vfiprintf.o)
 .rodata.zeroes.7016
                0x01f37818       0x10 i:/development/arm/gnu tools arm embedded/5.4 2016q2/bin/../lib/gcc/arm-none-eabi/5.4.1/../../../../arm-none-eabi/lib/fpu\libc.a(lib_a-vfiprintf.o)

.rodata1
 *(.rodata1)

.ARM.extab      0x01f37828        0x0
 *(.ARM.extab* .gnu.linkonce.armextab.*)
 .ARM.extab     0x01f37828        0x0 i:/development/arm/gnu tools arm embedded/5.4 2016q2/bin/../lib/gcc/arm-none-eabi/5.4.1/fpu\libgcc.a(_udivmoddi4.o)
                [!provide]                PROVIDE (__exidx_start, .)

.ARM.exidx      0x01f37828        0x8
 *(.ARM.exidx* .gnu.linkonce.armexidx.*)
 .ARM.exidx     0x01f37828        0x8 i:/development/arm/gnu tools arm embedded/5.4 2016q2/bin/../lib/gcc/arm-none-eabi/5.4.1/fpu\libgcc.a(_udivmoddi4.o)
                [!provide]                PROVIDE (__exidx_end, .)

.eh_frame_hdr
 *(.eh_frame_hdr)

.eh_frame
 *(.eh_frame)

.gcc_except_table
 *(.gcc_except_table .gcc_except_table.*)

.exception_ranges
 *(.exception_ranges .exception_ranges*)

.eh_frame
 *(.eh_frame)

.gcc_except_table
 *(.gcc_except_table .gcc_except_table.*)

.exception_ranges
 *(.exception_ranges .exception_ranges*)

.tdata
 *(.tdata .tdata.* .gnu.linkonce.td.*)

.tbss
 *(.tbss .tbss.* .gnu.linkonce.tb.*)
 *(.tcommon)

.preinit_array  0x01f37830        0x0
                0x01f37830                PROVIDE (__preinit_array_start, .)
 *(.preinit_array)
                0x01f37830                PROVIDE (__preinit_array_end, .)

.init_array     0x01f37830        0x4
                0x01f37830                PROVIDE (__init_array_start, .)
 *(SORT(.init_array.*))
 *(.init_array)
 .init_array    0x01f37830        0x4 src/main.o
                0x01f37834                PROVIDE (__init_array_end, .)

.fini_array     0x01f37834        0x0
                [!provide]                PROVIDE (__fini_array_start, .)
 *(SORT(.fini_array.*))
 *(.fini_array)
                [!provide]                PROVIDE (__fini_array_end, .)

.ctors
 *crtbegin.o(.ctors)
 *crtbegin?.o(.ctors)
 *(EXCLUDE_FILE(*crtend?.o *crtend.o) .ctors)
 *(SORT(.ctors.*))
 *(.ctors)

.dtors
 *crtbegin.o(.dtors)
 *crtbegin?.o(.dtors)
 *(EXCLUDE_FILE(*crtend?.o *crtend.o) .dtors)
 *(SORT(.dtors.*))
 *(.dtors)

.jcr
 *(.jcr)

.data.rel.ro
 *(.data.rel.ro.local* .gnu.linkonce.d.rel.ro.local.*)
 *(.data.rel.ro* .gnu.linkonce.d.rel.ro.*)

.dynamic
 *(.dynamic)

.got            0x01f37834        0x0
 *(.got.plt)
 *(.igot.plt)
 .igot.plt      0x01f37834        0x0 src/armc-start.o
 *(.got)
 *(.igot)

.data           0x01f37838      0x944
                0x01f37838                __data_start = .
 *(.data .data.* .gnu.linkonce.d.*)
 .data          0x01f37838        0x0 src/armc-start.o
 .data          0x01f37838        0x0 src/armc-cstartup.o
 .data          0x01f37838        0x0 src/armc-cstubs.o
 .data.environ  0x01f37838        0x4 src/armc-cstubs.o
                0x01f37838                environ
 .data          0x01f3783c        0x0 src/armc-cppstubs.o
 .data          0x01f3783c        0x0 src/exception.o
 .data          0x01f3783c        0xc src/main.o
                0x01f3783c                screenDepth
                0x01f37840                screenHeight
                0x01f37844                screenWidth
 .data          0x01f37848        0x0 src/rpi-aux.o
 .data          0x01f37848        0x0 src/rpi-i2c.o
 .data          0x01f37848        0x0 src/rpi-mailbox-interface.o
 .data          0x01f37848        0x0 src/rpi-mailbox.o
 .data          0x01f37848        0x0 src/rpi-gpio.o
 .data.RPI_GpioBase
                0x01f37848        0x4 src/rpi-gpio.o
                0x01f37848                RPI_GpioBase
 .data          0x01f3784c        0x0 src/rpi-interrupts.o
 .data          0x01f3784c        0x0 src/cache.o
 .data          0x01f3784c        0x0 src/ff.o
 .data          0x01f3784c        0x0 src/interrupt.o
 .data          0x01f3784c        0x0 src/Keyboard.o
 *fill*         0x01f3784c        0x4 
 .data          0x01f37850       0x18 src/emmc.o
                0x01f37850                CEMMCDevice::sd_versions
 .data          0x01f37868        0x0 src/diskio.o
 .data          0x01f37868        0x0 src/vga.o
 .data.vga_current_bg_color
                0x01f37868        0x4 src/vga.o
 .data.vga_current_fg_color
                0x01f3786c        0x4 src/vga.o
 .data          0x01f37870        0x0 src/terminal.o
 .data          0x01f37870        0x0 src/timer.o
 .data          0x01f37870        0x0 src/font_data.o
 .data          0x01f37870        0x0 src/basic.o
 .data          0x01f37870        0x0 src/linkedlist.o
 .data          0x01f37870        0x0 uspi/libuspi.a(uspilibrary.o)
 .data          0x01f37870        0x0 uspi/libuspi.a(dwhcidevice.o)
 .data          0x01f37870        0x0 uspi/libuspi.a(dwhciregister.o)
 .data          0x01f37870        0x0 uspi/libuspi.a(dwhcixferstagedata.o)
 .data          0x01f37870        0x0 uspi/libuspi.a(usbdevice.o)
 .data.s_ucNextAddress
                0x01f37870        0x1 uspi/libuspi.a(usbdevice.o)
 .data          0x01f37871        0x0 uspi/libuspi.a(usbendpoint.o)
 .data          0x01f37871        0x0 uspi/libuspi.a(usbrequest.o)
 .data          0x01f37871        0x0 uspi/libuspi.a(devicenameservice.o)
 .data          0x01f37871        0x0 uspi/libuspi.a(macaddress.o)
 .data          0x01f37871        0x0 uspi/libuspi.a(smsc951x.o)
 .data          0x01f37871        0x0 uspi/libuspi.a(lan7800.o)
 *fill*         0x01f37871        0x3 
 .data.s_nDeviceNumber
                0x01f37874        0x4 uspi/libuspi.a(lan7800.o)
 .data          0x01f37878        0x0 uspi/libuspi.a(string.o)
 .data          0x01f37878        0x0 uspi/libuspi.a(util.o)
 .data          0x01f37878        0x0 uspi/libuspi.a(usbmassdevice.o)
 .data.s_nDeviceNumber
                0x01f37878        0x4 uspi/libuspi.a(usbmassdevice.o)
 .data          0x01f3787c        0x0 uspi/libuspi.a(dwhciframeschednper.o)
 .data          0x01f3787c        0x0 uspi/libuspi.a(dwhciframeschedper.o)
 .data          0x01f3787c        0x0 uspi/libuspi.a(usbkeyboard.o)
 .data.s_nDeviceNumber
                0x01f3787c        0x4 uspi/libuspi.a(usbkeyboard.o)
 .data          0x01f37880        0x0 uspi/libuspi.a(dwhcirootport.o)
 .data          0x01f37880        0x0 uspi/libuspi.a(usbmouse.o)
 .data.s_nDeviceNumber
                0x01f37880        0x4 uspi/libuspi.a(usbmouse.o)
 .data          0x01f37884        0x0 uspi/libuspi.a(dwhciframeschednsplit.o)
 .data          0x01f37884        0x0 uspi/libuspi.a(usbgamepad.o)
 .data.s_nDeviceNumber
                0x01f37884        0x4 uspi/libuspi.a(usbgamepad.o)
 .data.writeBuf.5752
                0x01f37888       0x30 uspi/libuspi.a(usbgamepad.o)
 .data          0x01f378b8        0x0 uspi/libuspi.a(synchronize.o)
 .data          0x01f378b8        0x0 uspi/libuspi.a(usbstring.o)
 .data          0x01f378b8        0x0 uspi/libuspi.a(usbmidi.o)
 .data.s_nDeviceNumber
                0x01f378b8        0x4 uspi/libuspi.a(usbmidi.o)
 .data          0x01f378bc        0x0 uspi/libuspi.a(usbconfigparser.o)
 .data          0x01f378bc        0x0 uspi/libuspi.a(usbdevicefactory.o)
 .data          0x01f378bc        0x0 uspi/libuspi.a(usbstandardhub.o)
 .data          0x01f378bc        0x0 uspi/libuspi.a(keymap.o)
 .data          0x01f378bc        0x0 i:/development/arm/gnu tools arm embedded/5.4 2016q2/bin/../lib/gcc/arm-none-eabi/5.4.1/fpu\libgcc.a(_aeabi_uldivmod.o)
 .data          0x01f378bc        0x0 i:/development/arm/gnu tools arm embedded/5.4 2016q2/bin/../lib/gcc/arm-none-eabi/5.4.1/fpu\libgcc.a(_udivmoddi4.o)
 .data          0x01f378bc        0x0 i:/development/arm/gnu tools arm embedded/5.4 2016q2/bin/../lib/gcc/arm-none-eabi/5.4.1/fpu\libgcc.a(_dvmd_tls.o)
 .data          0x01f378bc        0x0 i:/development/arm/gnu tools arm embedded/5.4 2016q2/bin/../lib/gcc/arm-none-eabi/5.4.1/fpu\libgcc.a(_clzdi2.o)
 .data          0x01f378bc        0x0 i:/development/arm/gnu tools arm embedded/5.4 2016q2/bin/../lib/gcc/arm-none-eabi/5.4.1/fpu\libgcc.a(_clzsi2.o)
 .data          0x01f378bc        0x0 i:/development/arm/gnu tools arm embedded/5.4 2016q2/bin/../lib/gcc/arm-none-eabi/5.4.1/../../../../arm-none-eabi/lib/fpu\libc.a(lib_a-abs.o)
 .data          0x01f378bc        0x0 i:/development/arm/gnu tools arm embedded/5.4 2016q2/bin/../lib/gcc/arm-none-eabi/5.4.1/../../../../arm-none-eabi/lib/fpu\libc.a(lib_a-aeabi_atexit.o)
 .data          0x01f378bc        0x0 i:/development/arm/gnu tools arm embedded/5.4 2016q2/bin/../lib/gcc/arm-none-eabi/5.4.1/../../../../arm-none-eabi/lib/fpu\libc.a(lib_a-cxa_atexit.o)
 .data          0x01f378bc        0x0 i:/development/arm/gnu tools arm embedded/5.4 2016q2/bin/../lib/gcc/arm-none-eabi/5.4.1/../../../../arm-none-eabi/lib/fpu\libc.a(lib_a-init.o)
 .data          0x01f378bc        0x0 i:/development/arm/gnu tools arm embedded/5.4 2016q2/bin/../lib/gcc/arm-none-eabi/5.4.1/../../../../arm-none-eabi/lib/fpu\libc.a(lib_a-malloc.o)
 .data          0x01f378bc        0x0 i:/development/arm/gnu tools arm embedded/5.4 2016q2/bin/../lib/gcc/arm-none-eabi/5.4.1/../../../../arm-none-eabi/lib/fpu\libc.a(lib_a-mallocr.o)
 .data.__malloc_av_
                0x01f378bc      0x408 i:/development/arm/gnu tools arm embedded/5.4 2016q2/bin/../lib/gcc/arm-none-eabi/5.4.1/../../../../arm-none-eabi/lib/fpu\libc.a(lib_a-mallocr.o)
                0x01f378bc                __malloc_av_
 .data.__malloc_trim_threshold
                0x01f37cc4        0x4 i:/development/arm/gnu tools arm embedded/5.4 2016q2/bin/../lib/gcc/arm-none-eabi/5.4.1/../../../../arm-none-eabi/lib/fpu\libc.a(lib_a-mallocr.o)
                0x01f37cc4                __malloc_trim_threshold
 .data.__malloc_sbrk_base
                0x01f37cc8        0x4 i:/development/arm/gnu tools arm embedded/5.4 2016q2/bin/../lib/gcc/arm-none-eabi/5.4.1/../../../../arm-none-eabi/lib/fpu\libc.a(lib_a-mallocr.o)
                0x01f37cc8                __malloc_sbrk_base
 .data          0x01f37ccc        0x0 i:/development/arm/gnu tools arm embedded/5.4 2016q2/bin/../lib/gcc/arm-none-eabi/5.4.1/../../../../arm-none-eabi/lib/fpu\libc.a(lib_a-memcpy-stub.o)
 .data          0x01f37ccc        0x0 i:/development/arm/gnu tools arm embedded/5.4 2016q2/bin/../lib/gcc/arm-none-eabi/5.4.1/../../../../arm-none-eabi/lib/fpu\libc.a(lib_a-memset.o)
 .data          0x01f37ccc        0x0 i:/development/arm/gnu tools arm embedded/5.4 2016q2/bin/../lib/gcc/arm-none-eabi/5.4.1/../../../../arm-none-eabi/lib/fpu\libc.a(lib_a-mlock.o)
 .data          0x01f37ccc        0x0 i:/development/arm/gnu tools arm embedded/5.4 2016q2/bin/../lib/gcc/arm-none-eabi/5.4.1/../../../../arm-none-eabi/lib/fpu\libc.a(lib_a-printf.o)
 .data          0x01f37ccc        0x0 i:/development/arm/gnu tools arm embedded/5.4 2016q2/bin/../lib/gcc/arm-none-eabi/5.4.1/../../../../arm-none-eabi/lib/fpu\libc.a(lib_a-reent.o)
 .data          0x01f37ccc        0x0 i:/development/arm/gnu tools arm embedded/5.4 2016q2/bin/../lib/gcc/arm-none-eabi/5.4.1/../../../../arm-none-eabi/lib/fpu\libc.a(lib_a-sbrkr.o)
 .data          0x01f37ccc        0x0 i:/development/arm/gnu tools arm embedded/5.4 2016q2/bin/../lib/gcc/arm-none-eabi/5.4.1/../../../../arm-none-eabi/lib/fpu\libc.a(lib_a-snprintf.o)
 .data          0x01f37ccc        0x0 i:/development/arm/gnu tools arm embedded/5.4 2016q2/bin/../lib/gcc/arm-none-eabi/5.4.1/../../../../arm-none-eabi/lib/fpu\libc.a(lib_a-strcpy.o)
 .data          0x01f37ccc        0x0 i:/development/arm/gnu tools arm embedded/5.4 2016q2/bin/../lib/gcc/arm-none-eabi/5.4.1/../../../../arm-none-eabi/lib/fpu\libc.a(lib_a-strlen-stub.o)
 .data          0x01f37ccc        0x0 i:/development/arm/gnu tools arm embedded/5.4 2016q2/bin/../lib/gcc/arm-none-eabi/5.4.1/../../../../arm-none-eabi/lib/fpu\libc.a(lib_a-strncmp.o)
 .data          0x01f37ccc        0x0 i:/development/arm/gnu tools arm embedded/5.4 2016q2/bin/../lib/gcc/arm-none-eabi/5.4.1/../../../../arm-none-eabi/lib/fpu\libc.a(lib_a-strrchr.o)
 .data          0x01f37ccc        0x0 i:/development/arm/gnu tools arm embedded/5.4 2016q2/bin/../lib/gcc/arm-none-eabi/5.4.1/../../../../arm-none-eabi/lib/fpu\libc.a(lib_a-svfprintf.o)
 .data          0x01f37ccc        0x0 i:/development/arm/gnu tools arm embedded/5.4 2016q2/bin/../lib/gcc/arm-none-eabi/5.4.1/../../../../arm-none-eabi/lib/fpu\libc.a(lib_a-vfprintf.o)
 .data          0x01f37ccc        0x0 i:/development/arm/gnu tools arm embedded/5.4 2016q2/bin/../lib/gcc/arm-none-eabi/5.4.1/../../../../arm-none-eabi/lib/fpu\libc.a(lib_a-vprintf.o)
 .data          0x01f37ccc        0x0 i:/development/arm/gnu tools arm embedded/5.4 2016q2/bin/../lib/gcc/arm-none-eabi/5.4.1/../../../../arm-none-eabi/lib/fpu\libc.a(lib_a-wsetup.o)
 .data          0x01f37ccc        0x0 i:/development/arm/gnu tools arm embedded/5.4 2016q2/bin/../lib/gcc/arm-none-eabi/5.4.1/../../../../arm-none-eabi/lib/fpu\libc.a(lib_a-__atexit.o)
 .data          0x01f37ccc        0x0 i:/development/arm/gnu tools arm embedded/5.4 2016q2/bin/../lib/gcc/arm-none-eabi/5.4.1/../../../../arm-none-eabi/lib/fpu\libc.a(lib_a-dtoa.o)
 .data          0x01f37ccc        0x0 i:/development/arm/gnu tools arm embedded/5.4 2016q2/bin/../lib/gcc/arm-none-eabi/5.4.1/../../../../arm-none-eabi/lib/fpu\libc.a(lib_a-fflush.o)
 .data          0x01f37ccc        0x0 i:/development/arm/gnu tools arm embedded/5.4 2016q2/bin/../lib/gcc/arm-none-eabi/5.4.1/../../../../arm-none-eabi/lib/fpu\libc.a(lib_a-findfp.o)
 .data          0x01f37ccc        0x0 i:/development/arm/gnu tools arm embedded/5.4 2016q2/bin/../lib/gcc/arm-none-eabi/5.4.1/../../../../arm-none-eabi/lib/fpu\libc.a(lib_a-freer.o)
 .data          0x01f37ccc        0x0 i:/development/arm/gnu tools arm embedded/5.4 2016q2/bin/../lib/gcc/arm-none-eabi/5.4.1/../../../../arm-none-eabi/lib/fpu\libc.a(lib_a-fwalk.o)
 .data          0x01f37ccc        0x0 i:/development/arm/gnu tools arm embedded/5.4 2016q2/bin/../lib/gcc/arm-none-eabi/5.4.1/../../../../arm-none-eabi/lib/fpu\libc.a(lib_a-impure.o)
 *fill*         0x01f37ccc        0x4 
 .data.impure_data
                0x01f37cd0      0x428 i:/development/arm/gnu tools arm embedded/5.4 2016q2/bin/../lib/gcc/arm-none-eabi/5.4.1/../../../../arm-none-eabi/lib/fpu\libc.a(lib_a-impure.o)
 .data._impure_ptr
                0x01f380f8        0x4 i:/development/arm/gnu tools arm embedded/5.4 2016q2/bin/../lib/gcc/arm-none-eabi/5.4.1/../../../../arm-none-eabi/lib/fpu\libc.a(lib_a-impure.o)
                0x01f380f8                _impure_ptr
 .data          0x01f380fc        0x0 i:/development/arm/gnu tools arm embedded/5.4 2016q2/bin/../lib/gcc/arm-none-eabi/5.4.1/../../../../arm-none-eabi/lib/fpu\libc.a(lib_a-locale.o)
 .data.lc_message_charset
                0x01f380fc       0x20 i:/development/arm/gnu tools arm embedded/5.4 2016q2/bin/../lib/gcc/arm-none-eabi/5.4.1/../../../../arm-none-eabi/lib/fpu\libc.a(lib_a-locale.o)
 .data.lconv    0x01f3811c       0x38 i:/development/arm/gnu tools arm embedded/5.4 2016q2/bin/../lib/gcc/arm-none-eabi/5.4.1/../../../../arm-none-eabi/lib/fpu\libc.a(lib_a-locale.o)
 .data.lc_ctype_charset
                0x01f38154       0x20 i:/development/arm/gnu tools arm embedded/5.4 2016q2/bin/../lib/gcc/arm-none-eabi/5.4.1/../../../../arm-none-eabi/lib/fpu\libc.a(lib_a-locale.o)
 .data.__mb_cur_max
                0x01f38174        0x4 i:/development/arm/gnu tools arm embedded/5.4 2016q2/bin/../lib/gcc/arm-none-eabi/5.4.1/../../../../arm-none-eabi/lib/fpu\libc.a(lib_a-locale.o)
                0x01f38174                __mb_cur_max
 .data          0x01f38178        0x0 i:/development/arm/gnu tools arm embedded/5.4 2016q2/bin/../lib/gcc/arm-none-eabi/5.4.1/../../../../arm-none-eabi/lib/fpu\libc.a(lib_a-makebuf.o)
 .data          0x01f38178        0x0 i:/development/arm/gnu tools arm embedded/5.4 2016q2/bin/../lib/gcc/arm-none-eabi/5.4.1/../../../../arm-none-eabi/lib/fpu\libc.a(lib_a-memchr-stub.o)
 .data          0x01f38178        0x0 i:/development/arm/gnu tools arm embedded/5.4 2016q2/bin/../lib/gcc/arm-none-eabi/5.4.1/../../../../arm-none-eabi/lib/fpu\libc.a(lib_a-mprec.o)
 .data          0x01f38178        0x0 i:/development/arm/gnu tools arm embedded/5.4 2016q2/bin/../lib/gcc/arm-none-eabi/5.4.1/../../../../arm-none-eabi/lib/fpu\libc.a(lib_a-stdio.o)
 .data          0x01f38178        0x0 i:/development/arm/gnu tools arm embedded/5.4 2016q2/bin/../lib/gcc/arm-none-eabi/5.4.1/../../../../arm-none-eabi/lib/fpu\libc.a(lib_a-strchr.o)
 .data          0x01f38178        0x0 i:/development/arm/gnu tools arm embedded/5.4 2016q2/bin/../lib/gcc/arm-none-eabi/5.4.1/../../../../arm-none-eabi/lib/fpu\libc.a(lib_a-strcmp.o)
 .data          0x01f38178        0x0 i:/development/arm/gnu tools arm embedded/5.4 2016q2/bin/../lib/gcc/arm-none-eabi/5.4.1/../../../../arm-none-eabi/lib/fpu\libc.a(lib_a-svfiprintf.o)
 .data          0x01f38178        0x0 i:/development/arm/gnu tools arm embedded/5.4 2016q2/bin/../lib/gcc/arm-none-eabi/5.4.1/../../../../arm-none-eabi/lib/fpu\libc.a(lib_a-vfiprintf.o)
 .data          0x01f38178        0x0 i:/development/arm/gnu tools arm embedded/5.4 2016q2/bin/../lib/gcc/arm-none-eabi/5.4.1/../../../../arm-none-eabi/lib/fpu\libc.a(lib_a-writer.o)
 .data          0x01f38178        0x0 i:/development/arm/gnu tools arm embedded/5.4 2016q2/bin/../lib/gcc/arm-none-eabi/5.4.1/../../../../arm-none-eabi/lib/fpu\libc.a(lib_a-callocr.o)
 .data          0x01f38178        0x0 i:/development/arm/gnu tools arm embedded/5.4 2016q2/bin/../lib/gcc/arm-none-eabi/5.4.1/../../../../arm-none-eabi/lib/fpu\libc.a(lib_a-closer.o)
 .data          0x01f38178        0x0 i:/development/arm/gnu tools arm embedded/5.4 2016q2/bin/../lib/gcc/arm-none-eabi/5.4.1/../../../../arm-none-eabi/lib/fpu\libc.a(lib_a-fclose.o)
 .data          0x01f38178        0x0 i:/development/arm/gnu tools arm embedded/5.4 2016q2/bin/../lib/gcc/arm-none-eabi/5.4.1/../../../../arm-none-eabi/lib/fpu\libc.a(lib_a-fputwc.o)
 .data          0x01f38178        0x0 i:/development/arm/gnu tools arm embedded/5.4 2016q2/bin/../lib/gcc/arm-none-eabi/5.4.1/../../../../arm-none-eabi/lib/fpu\libc.a(lib_a-fstatr.o)
 .data          0x01f38178        0x0 i:/development/arm/gnu tools arm embedded/5.4 2016q2/bin/../lib/gcc/arm-none-eabi/5.4.1/../../../../arm-none-eabi/lib/fpu\libc.a(lib_a-fvwrite.o)
 .data          0x01f38178        0x0 i:/development/arm/gnu tools arm embedded/5.4 2016q2/bin/../lib/gcc/arm-none-eabi/5.4.1/../../../../arm-none-eabi/lib/fpu\libc.a(lib_a-isattyr.o)
 .data          0x01f38178        0x0 i:/development/arm/gnu tools arm embedded/5.4 2016q2/bin/../lib/gcc/arm-none-eabi/5.4.1/../../../../arm-none-eabi/lib/fpu\libc.a(lib_a-lseekr.o)
 .data          0x01f38178        0x0 i:/development/arm/gnu tools arm embedded/5.4 2016q2/bin/../lib/gcc/arm-none-eabi/5.4.1/../../../../arm-none-eabi/lib/fpu\libc.a(lib_a-memmove.o)
 .data          0x01f38178        0x0 i:/development/arm/gnu tools arm embedded/5.4 2016q2/bin/../lib/gcc/arm-none-eabi/5.4.1/../../../../arm-none-eabi/lib/fpu\libc.a(lib_a-readr.o)
 .data          0x01f38178        0x0 i:/development/arm/gnu tools arm embedded/5.4 2016q2/bin/../lib/gcc/arm-none-eabi/5.4.1/../../../../arm-none-eabi/lib/fpu\libc.a(lib_a-reallocr.o)
 .data          0x01f38178        0x0 i:/development/arm/gnu tools arm embedded/5.4 2016q2/bin/../lib/gcc/arm-none-eabi/5.4.1/../../../../arm-none-eabi/lib/fpu\libc.a(lib_a-wbuf.o)
 .data          0x01f38178        0x0 i:/development/arm/gnu tools arm embedded/5.4 2016q2/bin/../lib/gcc/arm-none-eabi/5.4.1/../../../../arm-none-eabi/lib/fpu\libc.a(lib_a-wcrtomb.o)
 .data          0x01f38178        0x0 i:/development/arm/gnu tools arm embedded/5.4 2016q2/bin/../lib/gcc/arm-none-eabi/5.4.1/../../../../arm-none-eabi/lib/fpu\libc.a(lib_a-wctomb_r.o)
 .data.__wctomb
                0x01f38178        0x4 i:/development/arm/gnu tools arm embedded/5.4 2016q2/bin/../lib/gcc/arm-none-eabi/5.4.1/../../../../arm-none-eabi/lib/fpu\libc.a(lib_a-wctomb_r.o)
                0x01f38178                __wctomb
 .data          0x01f3817c        0x0 i:/development/arm/gnu tools arm embedded/5.4 2016q2/bin/../lib/gcc/arm-none-eabi/5.4.1/fpu\libgcc.a(_udivsi3.o)
 .data          0x01f3817c        0x0 i:/development/arm/gnu tools arm embedded/5.4 2016q2/bin/../lib/gcc/arm-none-eabi/5.4.1/fpu\libgcc.a(_divsi3.o)

.data1
 *(.data1)
                0x01f3817c                _edata = .
                [!provide]                PROVIDE (edata, .)
                0x01f3817c                __bss_start = .
                0x01f3817c                __bss_start__ = .

.bss            0x01f3c000    0x14004
 *(.dynbss)
 *(.bss .bss.* .gnu.linkonce.b.*)
 .bss           0x01f3c000        0x0 src/armc-start.o
 .bss           0x01f3c000        0x0 src/armc-cstartup.o
 .bss           0x01f3c000        0x0 src/armc-cstubs.o
 .bss.heap_end.5370
                0x01f3c000        0x4 src/armc-cstubs.o
 *fill*         0x01f3c004        0x4 
 .bss.__env     0x01f3c008        0x4 src/armc-cstubs.o
                0x01f3c008                __env
 .bss           0x01f3c00c        0x4 src/armc-cppstubs.o
                0x01f3c00c                __dso_handle
 .bss           0x01f3c010        0x0 src/exception.o
 .bss           0x01f3c010      0x4a0 src/main.o
                0x01f3c010                m_EMMC
                0x01f3c088                keyboard
                0x01f3c090                tempBuffer
                0x01f3c490                vga_plotpixelFn
                0x01f3c494                vga_framebuffer
                0x01f3c498                vga_pitch
                0x01f3c49c                vga_bpp
                0x01f3c4a0                vga_height
                0x01f3c4a4                vga_width
                0x01f3c4a8                vga_scaleY
                0x01f3c4ac                vga_scaleX
 .bss._ZN9SingletonI8KeyboardE11m_pInstanceE
                0x01f3c4b0        0x4 src/main.o
                0x01f3c4b0                Singleton<Keyboard>::m_pInstance
 .bss           0x01f3c4b4        0x0 src/rpi-aux.o
 .bss           0x01f3c4b4        0x0 src/rpi-i2c.o
 .bss           0x01f3c4b4        0x0 src/rpi-mailbox-interface.o
 .bss.property.6423
                0x01f3c4b4      0x408 src/rpi-mailbox-interface.o
 *fill*         0x01f3c8bc        0x4 
 .bss.pt        0x01f3c8c0     0x8000 src/rpi-mailbox-interface.o
 .bss.pt_index  0x01f448c0        0x4 src/rpi-mailbox-interface.o
 .bss           0x01f448c4        0x0 src/rpi-mailbox.o
 .bss           0x01f448c4        0x0 src/rpi-gpio.o
 .bss.gpiovirtbuf
                0x01f448c4        0x4 src/rpi-gpio.o
 .bss.touchbuf  0x01f448c8        0x4 src/rpi-gpio.o
 *fill*         0x01f448cc        0x4 
 .bss.enables_disables
                0x01f448d0        0x8 src/rpi-gpio.o
 .bss           0x01f448d8        0x0 src/rpi-interrupts.o
 .bss           0x01f448d8        0x0 src/cache.o
 .bss           0x01f448d8      0x46c src/ff.o
 .bss           0x01f44d44        0x0 src/interrupt.o
 *fill*         0x01f44d44        0x4 
 .bss.Params    0x01f44d48      0x120 src/interrupt.o
 .bss.IRQHandlers
                0x01f44e68      0x120 src/interrupt.o
 .bss           0x01f44f88        0x0 src/Keyboard.o
 .bss           0x01f44f88        0x0 src/emmc.o
 .bss           0x01f44f88        0x4 src/diskio.o
 .bss           0x01f44f8c        0x0 src/vga.o
 .bss           0x01f44f8c        0xd src/terminal.o
 .bss           0x01f44f99        0x0 src/timer.o
 *fill*         0x01f44f99        0x3 
 .bss.m_KernelTimer
                0x01f44f9c      0x140 src/timer.o
 .bss.Ticks     0x01f450dc        0x4 src/timer.o
 .bss           0x01f450e0        0x0 src/font_data.o
 .bss           0x01f450e0        0x0 src/basic.o
 .bss           0x01f450e0        0x4 src/linkedlist.o
 .bss           0x01f450e4        0x0 uspi/libuspi.a(uspilibrary.o)
 .bss.s_pLibrary
                0x01f450e4        0x4 uspi/libuspi.a(uspilibrary.o)
 .bss           0x01f450e8        0x0 uspi/libuspi.a(dwhcidevice.o)
 .bss           0x01f450e8        0x0 uspi/libuspi.a(dwhciregister.o)
 .bss           0x01f450e8        0x0 uspi/libuspi.a(dwhcixferstagedata.o)
 .bss           0x01f450e8        0x0 uspi/libuspi.a(usbdevice.o)
 .bss           0x01f450e8        0x0 uspi/libuspi.a(usbendpoint.o)
 .bss           0x01f450e8        0x0 uspi/libuspi.a(usbrequest.o)
 .bss           0x01f450e8        0x0 uspi/libuspi.a(devicenameservice.o)
 .bss.s_pThis   0x01f450e8        0x4 uspi/libuspi.a(devicenameservice.o)
 .bss           0x01f450ec        0x0 uspi/libuspi.a(macaddress.o)
 .bss           0x01f450ec        0x0 uspi/libuspi.a(smsc951x.o)
 .bss.s_nDeviceNumber
                0x01f450ec        0x4 uspi/libuspi.a(smsc951x.o)
 .bss           0x01f450f0        0x0 uspi/libuspi.a(lan7800.o)
 .bss           0x01f450f0        0x0 uspi/libuspi.a(string.o)
 .bss           0x01f450f0        0x0 uspi/libuspi.a(util.o)
 .bss           0x01f450f0        0x0 uspi/libuspi.a(usbmassdevice.o)
 .bss           0x01f450f0        0x0 uspi/libuspi.a(dwhciframeschednper.o)
 .bss           0x01f450f0        0x0 uspi/libuspi.a(dwhciframeschedper.o)
 .bss           0x01f450f0        0x0 uspi/libuspi.a(usbkeyboard.o)
 .bss           0x01f450f0        0x0 uspi/libuspi.a(dwhcirootport.o)
 .bss           0x01f450f0        0x0 uspi/libuspi.a(usbmouse.o)
 .bss           0x01f450f0        0x0 uspi/libuspi.a(dwhciframeschednsplit.o)
 .bss           0x01f450f0        0x0 uspi/libuspi.a(usbgamepad.o)
 .bss           0x01f450f0        0x0 uspi/libuspi.a(synchronize.o)
 .bss.s_bWereEnabled
                0x01f450f0        0x4 uspi/libuspi.a(synchronize.o)
 .bss.s_nCriticalLevel
                0x01f450f4        0x4 uspi/libuspi.a(synchronize.o)
 .bss           0x01f450f8        0x0 uspi/libuspi.a(usbstring.o)
 .bss           0x01f450f8        0x0 uspi/libuspi.a(usbmidi.o)
 .bss           0x01f450f8        0x0 uspi/libuspi.a(usbconfigparser.o)
 .bss           0x01f450f8        0x0 uspi/libuspi.a(usbdevicefactory.o)
 .bss           0x01f450f8        0x0 uspi/libuspi.a(usbstandardhub.o)
 .bss           0x01f450f8        0x0 uspi/libuspi.a(keymap.o)
 .bss           0x01f450f8        0x0 i:/development/arm/gnu tools arm embedded/5.4 2016q2/bin/../lib/gcc/arm-none-eabi/5.4.1/fpu\libgcc.a(_aeabi_uldivmod.o)
 .bss           0x01f450f8        0x0 i:/development/arm/gnu tools arm embedded/5.4 2016q2/bin/../lib/gcc/arm-none-eabi/5.4.1/fpu\libgcc.a(_udivmoddi4.o)
 .bss           0x01f450f8        0x0 i:/development/arm/gnu tools arm embedded/5.4 2016q2/bin/../lib/gcc/arm-none-eabi/5.4.1/fpu\libgcc.a(_dvmd_tls.o)
 .bss           0x01f450f8        0x0 i:/development/arm/gnu tools arm embedded/5.4 2016q2/bin/../lib/gcc/arm-none-eabi/5.4.1/fpu\libgcc.a(_clzdi2.o)
 .bss           0x01f450f8        0x0 i:/development/arm/gnu tools arm embedded/5.4 2016q2/bin/../lib/gcc/arm-none-eabi/5.4.1/fpu\libgcc.a(_clzsi2.o)
 .bss           0x01f450f8        0x0 i:/development/arm/gnu tools arm embedded/5.4 2016q2/bin/../lib/gcc/arm-none-eabi/5.4.1/../../../../arm-none-eabi/lib/fpu\libc.a(lib_a-abs.o)
 .bss           0x01f450f8        0x0 i:/development/arm/gnu tools arm embedded/5.4 2016q2/bin/../lib/gcc/arm-none-eabi/5.4.1/../../../../arm-none-eabi/lib/fpu\libc.a(lib_a-aeabi_atexit.o)
 .bss           0x01f450f8        0x0 i:/development/arm/gnu tools arm embedded/5.4 2016q2/bin/../lib/gcc/arm-none-eabi/5.4.1/../../../../arm-none-eabi/lib/fpu\libc.a(lib_a-cxa_atexit.o)
 .bss           0x01f450f8        0x0 i:/development/arm/gnu tools arm embedded/5.4 2016q2/bin/../lib/gcc/arm-none-eabi/5.4.1/../../../../arm-none-eabi/lib/fpu\libc.a(lib_a-init.o)
 .bss           0x01f450f8        0x0 i:/development/arm/gnu tools arm embedded/5.4 2016q2/bin/../lib/gcc/arm-none-eabi/5.4.1/../../../../arm-none-eabi/lib/fpu\libc.a(lib_a-malloc.o)
 .bss           0x01f450f8        0x0 i:/development/arm/gnu tools arm embedded/5.4 2016q2/bin/../lib/gcc/arm-none-eabi/5.4.1/../../../../arm-none-eabi/lib/fpu\libc.a(lib_a-mallocr.o)
 .bss.__malloc_max_total_mem
                0x01f450f8        0x4 i:/development/arm/gnu tools arm embedded/5.4 2016q2/bin/../lib/gcc/arm-none-eabi/5.4.1/../../../../arm-none-eabi/lib/fpu\libc.a(lib_a-mallocr.o)
                0x01f450f8                __malloc_max_total_mem
 .bss.__malloc_max_sbrked_mem
                0x01f450fc        0x4 i:/development/arm/gnu tools arm embedded/5.4 2016q2/bin/../lib/gcc/arm-none-eabi/5.4.1/../../../../arm-none-eabi/lib/fpu\libc.a(lib_a-mallocr.o)
                0x01f450fc                __malloc_max_sbrked_mem
 .bss.__malloc_top_pad
                0x01f45100        0x4 i:/development/arm/gnu tools arm embedded/5.4 2016q2/bin/../lib/gcc/arm-none-eabi/5.4.1/../../../../arm-none-eabi/lib/fpu\libc.a(lib_a-mallocr.o)
                0x01f45100                __malloc_top_pad
 .bss.__malloc_current_mallinfo
                0x01f45104       0x28 i:/development/arm/gnu tools arm embedded/5.4 2016q2/bin/../lib/gcc/arm-none-eabi/5.4.1/../../../../arm-none-eabi/lib/fpu\libc.a(lib_a-mallocr.o)
                0x01f45104                __malloc_current_mallinfo
 .bss           0x01f4512c        0x0 i:/development/arm/gnu tools arm embedded/5.4 2016q2/bin/../lib/gcc/arm-none-eabi/5.4.1/../../../../arm-none-eabi/lib/fpu\libc.a(lib_a-memcpy-stub.o)
 .bss           0x01f4512c        0x0 i:/development/arm/gnu tools arm embedded/5.4 2016q2/bin/../lib/gcc/arm-none-eabi/5.4.1/../../../../arm-none-eabi/lib/fpu\libc.a(lib_a-memset.o)
 .bss           0x01f4512c        0x0 i:/development/arm/gnu tools arm embedded/5.4 2016q2/bin/../lib/gcc/arm-none-eabi/5.4.1/../../../../arm-none-eabi/lib/fpu\libc.a(lib_a-mlock.o)
 .bss           0x01f4512c        0x0 i:/development/arm/gnu tools arm embedded/5.4 2016q2/bin/../lib/gcc/arm-none-eabi/5.4.1/../../../../arm-none-eabi/lib/fpu\libc.a(lib_a-printf.o)
 .bss           0x01f4512c        0x0 i:/development/arm/gnu tools arm embedded/5.4 2016q2/bin/../lib/gcc/arm-none-eabi/5.4.1/../../../../arm-none-eabi/lib/fpu\libc.a(lib_a-reent.o)
 .bss           0x01f4512c        0x0 i:/development/arm/gnu tools arm embedded/5.4 2016q2/bin/../lib/gcc/arm-none-eabi/5.4.1/../../../../arm-none-eabi/lib/fpu\libc.a(lib_a-sbrkr.o)
 .bss           0x01f4512c        0x0 i:/development/arm/gnu tools arm embedded/5.4 2016q2/bin/../lib/gcc/arm-none-eabi/5.4.1/../../../../arm-none-eabi/lib/fpu\libc.a(lib_a-snprintf.o)
 .bss           0x01f4512c        0x0 i:/development/arm/gnu tools arm embedded/5.4 2016q2/bin/../lib/gcc/arm-none-eabi/5.4.1/../../../../arm-none-eabi/lib/fpu\libc.a(lib_a-strcpy.o)
 .bss           0x01f4512c        0x0 i:/development/arm/gnu tools arm embedded/5.4 2016q2/bin/../lib/gcc/arm-none-eabi/5.4.1/../../../../arm-none-eabi/lib/fpu\libc.a(lib_a-strlen-stub.o)
 .bss           0x01f4512c        0x0 i:/development/arm/gnu tools arm embedded/5.4 2016q2/bin/../lib/gcc/arm-none-eabi/5.4.1/../../../../arm-none-eabi/lib/fpu\libc.a(lib_a-strncmp.o)
 .bss           0x01f4512c        0x0 i:/development/arm/gnu tools arm embedded/5.4 2016q2/bin/../lib/gcc/arm-none-eabi/5.4.1/../../../../arm-none-eabi/lib/fpu\libc.a(lib_a-strrchr.o)
 .bss           0x01f4512c        0x0 i:/development/arm/gnu tools arm embedded/5.4 2016q2/bin/../lib/gcc/arm-none-eabi/5.4.1/../../../../arm-none-eabi/lib/fpu\libc.a(lib_a-svfprintf.o)
 .bss           0x01f4512c        0x0 i:/development/arm/gnu tools arm embedded/5.4 2016q2/bin/../lib/gcc/arm-none-eabi/5.4.1/../../../../arm-none-eabi/lib/fpu\libc.a(lib_a-vfprintf.o)
 .bss           0x01f4512c        0x0 i:/development/arm/gnu tools arm embedded/5.4 2016q2/bin/../lib/gcc/arm-none-eabi/5.4.1/../../../../arm-none-eabi/lib/fpu\libc.a(lib_a-vprintf.o)
 .bss           0x01f4512c        0x0 i:/development/arm/gnu tools arm embedded/5.4 2016q2/bin/../lib/gcc/arm-none-eabi/5.4.1/../../../../arm-none-eabi/lib/fpu\libc.a(lib_a-wsetup.o)
 .bss           0x01f4512c        0x0 i:/development/arm/gnu tools arm embedded/5.4 2016q2/bin/../lib/gcc/arm-none-eabi/5.4.1/../../../../arm-none-eabi/lib/fpu\libc.a(lib_a-__atexit.o)
 .bss           0x01f4512c        0x0 i:/development/arm/gnu tools arm embedded/5.4 2016q2/bin/../lib/gcc/arm-none-eabi/5.4.1/../../../../arm-none-eabi/lib/fpu\libc.a(lib_a-dtoa.o)
 .bss           0x01f4512c        0x0 i:/development/arm/gnu tools arm embedded/5.4 2016q2/bin/../lib/gcc/arm-none-eabi/5.4.1/../../../../arm-none-eabi/lib/fpu\libc.a(lib_a-fflush.o)
 .bss           0x01f4512c        0x0 i:/development/arm/gnu tools arm embedded/5.4 2016q2/bin/../lib/gcc/arm-none-eabi/5.4.1/../../../../arm-none-eabi/lib/fpu\libc.a(lib_a-findfp.o)
 .bss           0x01f4512c        0x0 i:/development/arm/gnu tools arm embedded/5.4 2016q2/bin/../lib/gcc/arm-none-eabi/5.4.1/../../../../arm-none-eabi/lib/fpu\libc.a(lib_a-freer.o)
 .bss           0x01f4512c        0x0 i:/development/arm/gnu tools arm embedded/5.4 2016q2/bin/../lib/gcc/arm-none-eabi/5.4.1/../../../../arm-none-eabi/lib/fpu\libc.a(lib_a-fwalk.o)
 .bss           0x01f4512c        0x0 i:/development/arm/gnu tools arm embedded/5.4 2016q2/bin/../lib/gcc/arm-none-eabi/5.4.1/../../../../arm-none-eabi/lib/fpu\libc.a(lib_a-impure.o)
 .bss           0x01f4512c        0x0 i:/development/arm/gnu tools arm embedded/5.4 2016q2/bin/../lib/gcc/arm-none-eabi/5.4.1/../../../../arm-none-eabi/lib/fpu\libc.a(lib_a-locale.o)
 .bss._PathLocale
                0x01f4512c        0x4 i:/development/arm/gnu tools arm embedded/5.4 2016q2/bin/../lib/gcc/arm-none-eabi/5.4.1/../../../../arm-none-eabi/lib/fpu\libc.a(lib_a-locale.o)
                0x01f4512c                _PathLocale
 .bss.__nlocale_changed
                0x01f45130        0x4 i:/development/arm/gnu tools arm embedded/5.4 2016q2/bin/../lib/gcc/arm-none-eabi/5.4.1/../../../../arm-none-eabi/lib/fpu\libc.a(lib_a-locale.o)
                0x01f45130                __nlocale_changed
 .bss.__mlocale_changed
                0x01f45134        0x4 i:/development/arm/gnu tools arm embedded/5.4 2016q2/bin/../lib/gcc/arm-none-eabi/5.4.1/../../../../arm-none-eabi/lib/fpu\libc.a(lib_a-locale.o)
                0x01f45134                __mlocale_changed
 .bss           0x01f45138        0x0 i:/development/arm/gnu tools arm embedded/5.4 2016q2/bin/../lib/gcc/arm-none-eabi/5.4.1/../../../../arm-none-eabi/lib/fpu\libc.a(lib_a-makebuf.o)
 .bss           0x01f45138        0x0 i:/development/arm/gnu tools arm embedded/5.4 2016q2/bin/../lib/gcc/arm-none-eabi/5.4.1/../../../../arm-none-eabi/lib/fpu\libc.a(lib_a-memchr-stub.o)
 .bss           0x01f45138        0x0 i:/development/arm/gnu tools arm embedded/5.4 2016q2/bin/../lib/gcc/arm-none-eabi/5.4.1/../../../../arm-none-eabi/lib/fpu\libc.a(lib_a-mprec.o)
 .bss           0x01f45138        0x0 i:/development/arm/gnu tools arm embedded/5.4 2016q2/bin/../lib/gcc/arm-none-eabi/5.4.1/../../../../arm-none-eabi/lib/fpu\libc.a(lib_a-stdio.o)
 .bss           0x01f45138        0x0 i:/development/arm/gnu tools arm embedded/5.4 2016q2/bin/../lib/gcc/arm-none-eabi/5.4.1/../../../../arm-none-eabi/lib/fpu\libc.a(lib_a-strchr.o)
 .bss           0x01f45138        0x0 i:/development/arm/gnu tools arm embedded/5.4 2016q2/bin/../lib/gcc/arm-none-eabi/5.4.1/../../../../arm-none-eabi/lib/fpu\libc.a(lib_a-strcmp.o)
 .bss           0x01f45138        0x0 i:/development/arm/gnu tools arm embedded/5.4 2016q2/bin/../lib/gcc/arm-none-eabi/5.4.1/../../../../arm-none-eabi/lib/fpu\libc.a(lib_a-svfiprintf.o)
 .bss           0x01f45138        0x0 i:/development/arm/gnu tools arm embedded/5.4 2016q2/bin/../lib/gcc/arm-none-eabi/5.4.1/../../../../arm-none-eabi/lib/fpu\libc.a(lib_a-vfiprintf.o)
 .bss           0x01f45138        0x0 i:/development/arm/gnu tools arm embedded/5.4 2016q2/bin/../lib/gcc/arm-none-eabi/5.4.1/../../../../arm-none-eabi/lib/fpu\libc.a(lib_a-writer.o)
 .bss           0x01f45138        0x0 i:/development/arm/gnu tools arm embedded/5.4 2016q2/bin/../lib/gcc/arm-none-eabi/5.4.1/../../../../arm-none-eabi/lib/fpu\libc.a(lib_a-callocr.o)
 .bss           0x01f45138        0x0 i:/development/arm/gnu tools arm embedded/5.4 2016q2/bin/../lib/gcc/arm-none-eabi/5.4.1/../../../../arm-none-eabi/lib/fpu\libc.a(lib_a-closer.o)
 .bss           0x01f45138        0x0 i:/development/arm/gnu tools arm embedded/5.4 2016q2/bin/../lib/gcc/arm-none-eabi/5.4.1/../../../../arm-none-eabi/lib/fpu\libc.a(lib_a-fclose.o)
 .bss           0x01f45138        0x0 i:/development/arm/gnu tools arm embedded/5.4 2016q2/bin/../lib/gcc/arm-none-eabi/5.4.1/../../../../arm-none-eabi/lib/fpu\libc.a(lib_a-fputwc.o)
 .bss           0x01f45138        0x0 i:/development/arm/gnu tools arm embedded/5.4 2016q2/bin/../lib/gcc/arm-none-eabi/5.4.1/../../../../arm-none-eabi/lib/fpu\libc.a(lib_a-fstatr.o)
 .bss           0x01f45138        0x0 i:/development/arm/gnu tools arm embedded/5.4 2016q2/bin/../lib/gcc/arm-none-eabi/5.4.1/../../../../arm-none-eabi/lib/fpu\libc.a(lib_a-fvwrite.o)
 .bss           0x01f45138        0x0 i:/development/arm/gnu tools arm embedded/5.4 2016q2/bin/../lib/gcc/arm-none-eabi/5.4.1/../../../../arm-none-eabi/lib/fpu\libc.a(lib_a-isattyr.o)
 .bss           0x01f45138        0x0 i:/development/arm/gnu tools arm embedded/5.4 2016q2/bin/../lib/gcc/arm-none-eabi/5.4.1/../../../../arm-none-eabi/lib/fpu\libc.a(lib_a-lseekr.o)
 .bss           0x01f45138        0x0 i:/development/arm/gnu tools arm embedded/5.4 2016q2/bin/../lib/gcc/arm-none-eabi/5.4.1/../../../../arm-none-eabi/lib/fpu\libc.a(lib_a-memmove.o)
 .bss           0x01f45138        0x0 i:/development/arm/gnu tools arm embedded/5.4 2016q2/bin/../lib/gcc/arm-none-eabi/5.4.1/../../../../arm-none-eabi/lib/fpu\libc.a(lib_a-readr.o)
 .bss           0x01f45138        0x0 i:/development/arm/gnu tools arm embedded/5.4 2016q2/bin/../lib/gcc/arm-none-eabi/5.4.1/../../../../arm-none-eabi/lib/fpu\libc.a(lib_a-reallocr.o)
 .bss           0x01f45138        0x0 i:/development/arm/gnu tools arm embedded/5.4 2016q2/bin/../lib/gcc/arm-none-eabi/5.4.1/../../../../arm-none-eabi/lib/fpu\libc.a(lib_a-wbuf.o)
 .bss           0x01f45138        0x0 i:/development/arm/gnu tools arm embedded/5.4 2016q2/bin/../lib/gcc/arm-none-eabi/5.4.1/../../../../arm-none-eabi/lib/fpu\libc.a(lib_a-wcrtomb.o)
 .bss           0x01f45138        0x0 i:/development/arm/gnu tools arm embedded/5.4 2016q2/bin/../lib/gcc/arm-none-eabi/5.4.1/../../../../arm-none-eabi/lib/fpu\libc.a(lib_a-wctomb_r.o)
 .bss           0x01f45138        0x0 i:/development/arm/gnu tools arm embedded/5.4 2016q2/bin/../lib/gcc/arm-none-eabi/5.4.1/fpu\libgcc.a(_udivsi3.o)
 .bss           0x01f45138        0x0 i:/development/arm/gnu tools arm embedded/5.4 2016q2/bin/../lib/gcc/arm-none-eabi/5.4.1/fpu\libgcc.a(_divsi3.o)
 *(COMMON)
 *fill*         0x01f45138     0x2ec8 
 COMMON         0x01f48000     0x8000 src/cache.o
                0x01f48000                PageTable2
                0x01f4c000                PageTable
 COMMON         0x01f50000        0x4 i:/development/arm/gnu tools arm embedded/5.4 2016q2/bin/../lib/gcc/arm-none-eabi/5.4.1/../../../../arm-none-eabi/lib/fpu\libc.a(lib_a-reent.o)
                0x01f50000                errno
                0x01f50004                . = ALIGN ((. != 0x0)?0x4:0x1)
                0x01f50004                _bss_end__ = .
                0x01f50004                __bss_end__ = .
                0x01f50004                . = ALIGN (0x4)
                0x01f50004                . = ALIGN (0x4)
                0x01f50004                __end__ = .
                0x01f50004                _end = .
                [!provide]                PROVIDE (end, .)

.stab
 *(.stab)

.stabstr
 *(.stabstr)

.stab.excl
 *(.stab.excl)

.stab.exclstr
 *(.stab.exclstr)

.stab.index
 *(.stab.index)

.stab.indexstr
 *(.stab.indexstr)

.comment        0x00000000       0x6e
 *(.comment)
 .comment       0x00000000       0x6e src/armc-cstartup.o
                                 0x6f (size before relaxing)
 .comment       0x0000006e       0x6f src/armc-cstubs.o
 .comment       0x0000006e       0x6f src/armc-cppstubs.o
 .comment       0x0000006e       0x6f src/exception.o
 .comment       0x0000006e       0x6f src/main.o
 .comment       0x0000006e       0x6f src/rpi-aux.o
 .comment       0x0000006e       0x6f src/rpi-i2c.o
 .comment       0x0000006e       0x6f src/rpi-mailbox-interface.o
 .comment       0x0000006e       0x6f src/rpi-mailbox.o
 .comment       0x0000006e       0x6f src/rpi-gpio.o
 .comment       0x0000006e       0x6f src/rpi-interrupts.o
 .comment       0x0000006e       0x6f src/cache.o
 .comment       0x0000006e       0x6f src/ff.o
 .comment       0x0000006e       0x6f src/interrupt.o
 .comment       0x0000006e       0x6f src/Keyboard.o
 .comment       0x0000006e       0x6f src/emmc.o
 .comment       0x0000006e       0x6f src/diskio.o
 .comment       0x0000006e       0x6f src/vga.o
 .comment       0x0000006e       0x6f src/terminal.o
 .comment       0x0000006e       0x6f src/timer.o
 .comment       0x0000006e       0x6f src/font_data.o
 .comment       0x0000006e       0x6f src/basic.o
 .comment       0x0000006e       0x6f src/linkedlist.o
 .comment       0x0000006e       0x6f uspi/libuspi.a(uspilibrary.o)
 .comment       0x0000006e       0x6f uspi/libuspi.a(dwhcidevice.o)
 .comment       0x0000006e       0x6f uspi/libuspi.a(dwhciregister.o)
 .comment       0x0000006e       0x6f uspi/libuspi.a(dwhcixferstagedata.o)
 .comment       0x0000006e       0x6f uspi/libuspi.a(usbdevice.o)
 .comment       0x0000006e       0x6f uspi/libuspi.a(usbendpoint.o)
 .comment       0x0000006e       0x6f uspi/libuspi.a(usbrequest.o)
 .comment       0x0000006e       0x6f uspi/libuspi.a(devicenameservice.o)
 .comment       0x0000006e       0x6f uspi/libuspi.a(macaddress.o)
 .comment       0x0000006e       0x6f uspi/libuspi.a(smsc951x.o)
 .comment       0x0000006e       0x6f uspi/libuspi.a(lan7800.o)
 .comment       0x0000006e       0x6f uspi/libuspi.a(string.o)
 .comment       0x0000006e       0x6f uspi/libuspi.a(util.o)
 .comment       0x0000006e       0x6f uspi/libuspi.a(usbmassdevice.o)
 .comment       0x0000006e       0x6f uspi/libuspi.a(dwhciframeschednper.o)
 .comment       0x0000006e       0x6f uspi/libuspi.a(dwhciframeschedper.o)
 .comment       0x0000006e       0x6f uspi/libuspi.a(usbkeyboard.o)
 .comment       0x0000006e       0x6f uspi/libuspi.a(dwhcirootport.o)
 .comment       0x0000006e       0x6f uspi/libuspi.a(usbmouse.o)
 .comment       0x0000006e       0x6f uspi/libuspi.a(dwhciframeschednsplit.o)
 .comment       0x0000006e       0x6f uspi/libuspi.a(usbgamepad.o)
 .comment       0x0000006e       0x6f uspi/libuspi.a(synchronize.o)
 .comment       0x0000006e       0x6f uspi/libuspi.a(usbstring.o)
 .comment       0x0000006e       0x6f uspi/libuspi.a(usbmidi.o)
 .comment       0x0000006e       0x6f uspi/libuspi.a(usbconfigparser.o)
 .comment       0x0000006e       0x6f uspi/libuspi.a(usbdevicefactory.o)
 .comment       0x0000006e       0x6f uspi/libuspi.a(usbstandardhub.o)
 .comment       0x0000006e       0x6f uspi/libuspi.a(keymap.o)

.debug
 *(.debug)

.line
 *(.line)

.debug_srcinfo
 *(.debug_srcinfo)

.debug_sfnames
 *(.debug_sfnames)

.debug_aranges
 *(.debug_aranges)

.debug_pubnames
 *(.debug_pubnames)

.debug_info
 *(.debug_info .gnu.linkonce.wi.*)

.debug_abbrev
 *(.debug_abbrev)

.debug_line
 *(.debug_line)

.debug_frame    0x00000000     0x1660
 *(.debug_frame)
 .debug_frame   0x00000000       0x2c i:/development/arm/gnu tools arm embedded/5.4 2016q2/bin/../lib/gcc/arm-none-eabi/5.4.1/fpu\libgcc.a(_aeabi_uldivmod.o)
 .debug_frame   0x0000002c       0x48 i:/development/arm/gnu tools arm embedded/5.4 2016q2/bin/../lib/gcc/arm-none-eabi/5.4.1/fpu\libgcc.a(_udivmoddi4.o)
 .debug_frame   0x00000074       0x20 i:/development/arm/gnu tools arm embedded/5.4 2016q2/bin/../lib/gcc/arm-none-eabi/5.4.1/../../../../arm-none-eabi/lib/fpu\libc.a(lib_a-abs.o)
 .debug_frame   0x00000094       0x2c i:/development/arm/gnu tools arm embedded/5.4 2016q2/bin/../lib/gcc/arm-none-eabi/5.4.1/../../../../arm-none-eabi/lib/fpu\libc.a(lib_a-aeabi_atexit.o)
 .debug_frame   0x000000c0       0x2c i:/development/arm/gnu tools arm embedded/5.4 2016q2/bin/../lib/gcc/arm-none-eabi/5.4.1/../../../../arm-none-eabi/lib/fpu\libc.a(lib_a-cxa_atexit.o)
 .debug_frame   0x000000ec       0x34 i:/development/arm/gnu tools arm embedded/5.4 2016q2/bin/../lib/gcc/arm-none-eabi/5.4.1/../../../../arm-none-eabi/lib/fpu\libc.a(lib_a-init.o)
 .debug_frame   0x00000120       0x48 i:/development/arm/gnu tools arm embedded/5.4 2016q2/bin/../lib/gcc/arm-none-eabi/5.4.1/../../../../arm-none-eabi/lib/fpu\libc.a(lib_a-malloc.o)
 .debug_frame   0x00000168       0x84 i:/development/arm/gnu tools arm embedded/5.4 2016q2/bin/../lib/gcc/arm-none-eabi/5.4.1/../../../../arm-none-eabi/lib/fpu\libc.a(lib_a-mallocr.o)
 .debug_frame   0x000001ec       0x3c i:/development/arm/gnu tools arm embedded/5.4 2016q2/bin/../lib/gcc/arm-none-eabi/5.4.1/../../../../arm-none-eabi/lib/fpu\libc.a(lib_a-memcpy-stub.o)
 .debug_frame   0x00000228       0x30 i:/development/arm/gnu tools arm embedded/5.4 2016q2/bin/../lib/gcc/arm-none-eabi/5.4.1/../../../../arm-none-eabi/lib/fpu\libc.a(lib_a-memset.o)
 .debug_frame   0x00000258       0x30 i:/development/arm/gnu tools arm embedded/5.4 2016q2/bin/../lib/gcc/arm-none-eabi/5.4.1/../../../../arm-none-eabi/lib/fpu\libc.a(lib_a-mlock.o)
 .debug_frame   0x00000288       0x74 i:/development/arm/gnu tools arm embedded/5.4 2016q2/bin/../lib/gcc/arm-none-eabi/5.4.1/../../../../arm-none-eabi/lib/fpu\libc.a(lib_a-printf.o)
 .debug_frame   0x000002fc       0x64 i:/development/arm/gnu tools arm embedded/5.4 2016q2/bin/../lib/gcc/arm-none-eabi/5.4.1/../../../../arm-none-eabi/lib/fpu\libc.a(lib_a-reent.o)
 .debug_frame   0x00000360       0x3c i:/development/arm/gnu tools arm embedded/5.4 2016q2/bin/../lib/gcc/arm-none-eabi/5.4.1/../../../../arm-none-eabi/lib/fpu\libc.a(lib_a-sbrkr.o)
 .debug_frame   0x0000039c       0x9c i:/development/arm/gnu tools arm embedded/5.4 2016q2/bin/../lib/gcc/arm-none-eabi/5.4.1/../../../../arm-none-eabi/lib/fpu\libc.a(lib_a-snprintf.o)
 .debug_frame   0x00000438       0x20 i:/development/arm/gnu tools arm embedded/5.4 2016q2/bin/../lib/gcc/arm-none-eabi/5.4.1/../../../../arm-none-eabi/lib/fpu\libc.a(lib_a-strcpy.o)
 .debug_frame   0x00000458       0x20 i:/development/arm/gnu tools arm embedded/5.4 2016q2/bin/../lib/gcc/arm-none-eabi/5.4.1/../../../../arm-none-eabi/lib/fpu\libc.a(lib_a-strlen-stub.o)
 .debug_frame   0x00000478       0x48 i:/development/arm/gnu tools arm embedded/5.4 2016q2/bin/../lib/gcc/arm-none-eabi/5.4.1/../../../../arm-none-eabi/lib/fpu\libc.a(lib_a-strncmp.o)
 .debug_frame   0x000004c0       0x3c i:/development/arm/gnu tools arm embedded/5.4 2016q2/bin/../lib/gcc/arm-none-eabi/5.4.1/../../../../arm-none-eabi/lib/fpu\libc.a(lib_a-strrchr.o)
 .debug_frame   0x000004fc       0x74 i:/development/arm/gnu tools arm embedded/5.4 2016q2/bin/../lib/gcc/arm-none-eabi/5.4.1/../../../../arm-none-eabi/lib/fpu\libc.a(lib_a-svfprintf.o)
 .debug_frame   0x00000570       0xd8 i:/development/arm/gnu tools arm embedded/5.4 2016q2/bin/../lib/gcc/arm-none-eabi/5.4.1/../../../../arm-none-eabi/lib/fpu\libc.a(lib_a-vfprintf.o)
 .debug_frame   0x00000648       0x48 i:/development/arm/gnu tools arm embedded/5.4 2016q2/bin/../lib/gcc/arm-none-eabi/5.4.1/../../../../arm-none-eabi/lib/fpu\libc.a(lib_a-vprintf.o)
 .debug_frame   0x00000690       0x40 i:/development/arm/gnu tools arm embedded/5.4 2016q2/bin/../lib/gcc/arm-none-eabi/5.4.1/../../../../arm-none-eabi/lib/fpu\libc.a(lib_a-wsetup.o)
 .debug_frame   0x000006d0       0x3c i:/development/arm/gnu tools arm embedded/5.4 2016q2/bin/../lib/gcc/arm-none-eabi/5.4.1/../../../../arm-none-eabi/lib/fpu\libc.a(lib_a-__atexit.o)
 .debug_frame   0x0000070c       0xac i:/development/arm/gnu tools arm embedded/5.4 2016q2/bin/../lib/gcc/arm-none-eabi/5.4.1/../../../../arm-none-eabi/lib/fpu\libc.a(lib_a-dtoa.o)
 .debug_frame   0x000007b8       0xa4 i:/development/arm/gnu tools arm embedded/5.4 2016q2/bin/../lib/gcc/arm-none-eabi/5.4.1/../../../../arm-none-eabi/lib/fpu\libc.a(lib_a-fflush.o)
 .debug_frame   0x0000085c      0x174 i:/development/arm/gnu tools arm embedded/5.4 2016q2/bin/../lib/gcc/arm-none-eabi/5.4.1/../../../../arm-none-eabi/lib/fpu\libc.a(lib_a-findfp.o)
 .debug_frame   0x000009d0       0x78 i:/development/arm/gnu tools arm embedded/5.4 2016q2/bin/../lib/gcc/arm-none-eabi/5.4.1/../../../../arm-none-eabi/lib/fpu\libc.a(lib_a-freer.o)
 .debug_frame   0x00000a48       0x80 i:/development/arm/gnu tools arm embedded/5.4 2016q2/bin/../lib/gcc/arm-none-eabi/5.4.1/../../../../arm-none-eabi/lib/fpu\libc.a(lib_a-fwalk.o)
 .debug_frame   0x00000ac8       0xa4 i:/development/arm/gnu tools arm embedded/5.4 2016q2/bin/../lib/gcc/arm-none-eabi/5.4.1/../../../../arm-none-eabi/lib/fpu\libc.a(lib_a-locale.o)
 .debug_frame   0x00000b6c       0x74 i:/development/arm/gnu tools arm embedded/5.4 2016q2/bin/../lib/gcc/arm-none-eabi/5.4.1/../../../../arm-none-eabi/lib/fpu\libc.a(lib_a-makebuf.o)
 .debug_frame   0x00000be0       0x34 i:/development/arm/gnu tools arm embedded/5.4 2016q2/bin/../lib/gcc/arm-none-eabi/5.4.1/../../../../arm-none-eabi/lib/fpu\libc.a(lib_a-memchr-stub.o)
 .debug_frame   0x00000c14      0x2c0 i:/development/arm/gnu tools arm embedded/5.4 2016q2/bin/../lib/gcc/arm-none-eabi/5.4.1/../../../../arm-none-eabi/lib/fpu\libc.a(lib_a-mprec.o)
 .debug_frame   0x00000ed4       0x9c i:/development/arm/gnu tools arm embedded/5.4 2016q2/bin/../lib/gcc/arm-none-eabi/5.4.1/../../../../arm-none-eabi/lib/fpu\libc.a(lib_a-stdio.o)
 .debug_frame   0x00000f70       0x48 i:/development/arm/gnu tools arm embedded/5.4 2016q2/bin/../lib/gcc/arm-none-eabi/5.4.1/../../../../arm-none-eabi/lib/fpu\libc.a(lib_a-strchr.o)
 .debug_frame   0x00000fb8       0x40 i:/development/arm/gnu tools arm embedded/5.4 2016q2/bin/../lib/gcc/arm-none-eabi/5.4.1/../../../../arm-none-eabi/lib/fpu\libc.a(lib_a-strcmp.o)
 .debug_frame   0x00000ff8       0x9c i:/development/arm/gnu tools arm embedded/5.4 2016q2/bin/../lib/gcc/arm-none-eabi/5.4.1/../../../../arm-none-eabi/lib/fpu\libc.a(lib_a-svfiprintf.o)
 .debug_frame   0x00001094       0xec i:/development/arm/gnu tools arm embedded/5.4 2016q2/bin/../lib/gcc/arm-none-eabi/5.4.1/../../../../arm-none-eabi/lib/fpu\libc.a(lib_a-vfiprintf.o)
 .debug_frame   0x00001180       0x34 i:/development/arm/gnu tools arm embedded/5.4 2016q2/bin/../lib/gcc/arm-none-eabi/5.4.1/../../../../arm-none-eabi/lib/fpu\libc.a(lib_a-writer.o)
 .debug_frame   0x000011b4       0x34 i:/development/arm/gnu tools arm embedded/5.4 2016q2/bin/../lib/gcc/arm-none-eabi/5.4.1/../../../../arm-none-eabi/lib/fpu\libc.a(lib_a-callocr.o)
 .debug_frame   0x000011e8       0x34 i:/development/arm/gnu tools arm embedded/5.4 2016q2/bin/../lib/gcc/arm-none-eabi/5.4.1/../../../../arm-none-eabi/lib/fpu\libc.a(lib_a-closer.o)
 .debug_frame   0x0000121c       0x58 i:/development/arm/gnu tools arm embedded/5.4 2016q2/bin/../lib/gcc/arm-none-eabi/5.4.1/../../../../arm-none-eabi/lib/fpu\libc.a(lib_a-fclose.o)
 .debug_frame   0x00001274       0x98 i:/development/arm/gnu tools arm embedded/5.4 2016q2/bin/../lib/gcc/arm-none-eabi/5.4.1/../../../../arm-none-eabi/lib/fpu\libc.a(lib_a-fputwc.o)
 .debug_frame   0x0000130c       0x34 i:/development/arm/gnu tools arm embedded/5.4 2016q2/bin/../lib/gcc/arm-none-eabi/5.4.1/../../../../arm-none-eabi/lib/fpu\libc.a(lib_a-fstatr.o)
 .debug_frame   0x00001340       0x80 i:/development/arm/gnu tools arm embedded/5.4 2016q2/bin/../lib/gcc/arm-none-eabi/5.4.1/../../../../arm-none-eabi/lib/fpu\libc.a(lib_a-fvwrite.o)
 .debug_frame   0x000013c0       0x34 i:/development/arm/gnu tools arm embedded/5.4 2016q2/bin/../lib/gcc/arm-none-eabi/5.4.1/../../../../arm-none-eabi/lib/fpu\libc.a(lib_a-isattyr.o)
 .debug_frame   0x000013f4       0x34 i:/development/arm/gnu tools arm embedded/5.4 2016q2/bin/../lib/gcc/arm-none-eabi/5.4.1/../../../../arm-none-eabi/lib/fpu\libc.a(lib_a-lseekr.o)
 .debug_frame   0x00001428       0x40 i:/development/arm/gnu tools arm embedded/5.4 2016q2/bin/../lib/gcc/arm-none-eabi/5.4.1/../../../../arm-none-eabi/lib/fpu\libc.a(lib_a-memmove.o)
 .debug_frame   0x00001468       0x34 i:/development/arm/gnu tools arm embedded/5.4 2016q2/bin/../lib/gcc/arm-none-eabi/5.4.1/../../../../arm-none-eabi/lib/fpu\libc.a(lib_a-readr.o)
 .debug_frame   0x0000149c       0x70 i:/development/arm/gnu tools arm embedded/5.4 2016q2/bin/../lib/gcc/arm-none-eabi/5.4.1/../../../../arm-none-eabi/lib/fpu\libc.a(lib_a-reallocr.o)
 .debug_frame   0x0000150c       0x4c i:/development/arm/gnu tools arm embedded/5.4 2016q2/bin/../lib/gcc/arm-none-eabi/5.4.1/../../../../arm-none-eabi/lib/fpu\libc.a(lib_a-wbuf.o)
 .debug_frame   0x00001558       0x78 i:/development/arm/gnu tools arm embedded/5.4 2016q2/bin/../lib/gcc/arm-none-eabi/5.4.1/../../../../arm-none-eabi/lib/fpu\libc.a(lib_a-wcrtomb.o)
 .debug_frame   0x000015d0       0x50 i:/development/arm/gnu tools arm embedded/5.4 2016q2/bin/../lib/gcc/arm-none-eabi/5.4.1/../../../../arm-none-eabi/lib/fpu\libc.a(lib_a-wctomb_r.o)
 .debug_frame   0x00001620       0x20 i:/development/arm/gnu tools arm embedded/5.4 2016q2/bin/../lib/gcc/arm-none-eabi/5.4.1/fpu\libgcc.a(_udivsi3.o)
 .debug_frame   0x00001640       0x20 i:/development/arm/gnu tools arm embedded/5.4 2016q2/bin/../lib/gcc/arm-none-eabi/5.4.1/fpu\libgcc.a(_divsi3.o)

.debug_str
 *(.debug_str)

.debug_loc
 *(.debug_loc)

.debug_macinfo
 *(.debug_macinfo)

.debug_weaknames
 *(.debug_weaknames)

.debug_funcnames
 *(.debug_funcnames)

.debug_typenames
 *(.debug_typenames)

.debug_varnames
 *(.debug_varnames)

.debug_pubtypes
 *(.debug_pubtypes)

.debug_ranges
 *(.debug_ranges)

.stack          0x00080000        0x0
                0x00080000                _stack = .
 *(.stack)

.ARM.attributes
                0x00000000       0x35
 *(.ARM.attributes)
 .ARM.attributes
                0x00000000       0x25 src/armc-start.o
 .ARM.attributes
                0x00000025       0x35 src/armc-cstartup.o
 .ARM.attributes
                0x0000005a       0x35 src/armc-cstubs.o
 .ARM.attributes
                0x0000008f       0x35 src/armc-cppstubs.o
 .ARM.attributes
                0x000000c4       0x35 src/exception.o
 .ARM.attributes
                0x000000f9       0x35 src/main.o
 .ARM.attributes
                0x0000012e       0x35 src/rpi-aux.o
 .ARM.attributes
                0x00000163       0x35 src/rpi-i2c.o
 .ARM.attributes
                0x00000198       0x35 src/rpi-mailbox-interface.o
 .ARM.attributes
                0x000001cd       0x35 src/rpi-mailbox.o
 .ARM.attributes
                0x00000202       0x35 src/rpi-gpio.o
 .ARM.attributes
                0x00000237       0x35 src/rpi-interrupts.o
 .ARM.attributes
                0x0000026c       0x35 src/cache.o
 .ARM.attributes
                0x000002a1       0x35 src/ff.o
 .ARM.attributes
                0x000002d6       0x35 src/interrupt.o
 .ARM.attributes
                0x0000030b       0x35 src/Keyboard.o
 .ARM.attributes
                0x00000340       0x35 src/emmc.o
 .ARM.attributes
                0x00000375       0x35 src/diskio.o
 .ARM.attributes
                0x000003aa       0x35 src/vga.o
 .ARM.attributes
                0x000003df       0x35 src/terminal.o
 .ARM.attributes
                0x00000414       0x35 src/timer.o
 .ARM.attributes
                0x00000449       0x35 src/font_data.o
 .ARM.attributes
                0x0000047e       0x35 src/basic.o
 .ARM.attributes
                0x000004b3       0x35 src/linkedlist.o
 .ARM.attributes
                0x000004e8       0x35 uspi/libuspi.a(uspilibrary.o)
 .ARM.attributes
                0x0000051d       0x35 uspi/libuspi.a(dwhcidevice.o)
 .ARM.attributes
                0x00000552       0x35 uspi/libuspi.a(dwhciregister.o)
 .ARM.attributes
                0x00000587       0x35 uspi/libuspi.a(dwhcixferstagedata.o)
 .ARM.attributes
                0x000005bc       0x35 uspi/libuspi.a(usbdevice.o)
 .ARM.attributes
                0x000005f1       0x35 uspi/libuspi.a(usbendpoint.o)
 .ARM.attributes
                0x00000626       0x35 uspi/libuspi.a(usbrequest.o)
 .ARM.attributes
                0x0000065b       0x35 uspi/libuspi.a(devicenameservice.o)
 .ARM.attributes
                0x00000690       0x35 uspi/libuspi.a(macaddress.o)
 .ARM.attributes
                0x000006c5       0x35 uspi/libuspi.a(smsc951x.o)
 .ARM.attributes
                0x000006fa       0x35 uspi/libuspi.a(lan7800.o)
 .ARM.attributes
                0x0000072f       0x35 uspi/libuspi.a(string.o)
 .ARM.attributes
                0x00000764       0x35 uspi/libuspi.a(util.o)
 .ARM.attributes
                0x00000799       0x35 uspi/libuspi.a(usbmassdevice.o)
 .ARM.attributes
                0x000007ce       0x35 uspi/libuspi.a(dwhciframeschednper.o)
 .ARM.attributes
                0x00000803       0x35 uspi/libuspi.a(dwhciframeschedper.o)
 .ARM.attributes
                0x00000838       0x35 uspi/libuspi.a(usbkeyboard.o)
 .ARM.attributes
                0x0000086d       0x35 uspi/libuspi.a(dwhcirootport.o)
 .ARM.attributes
                0x000008a2       0x35 uspi/libuspi.a(usbmouse.o)
 .ARM.attributes
                0x000008d7       0x35 uspi/libuspi.a(dwhciframeschednsplit.o)
 .ARM.attributes
                0x0000090c       0x35 uspi/libuspi.a(usbgamepad.o)
 .ARM.attributes
                0x00000941       0x35 uspi/libuspi.a(synchronize.o)
 .ARM.attributes
                0x00000976       0x35 uspi/libuspi.a(usbstring.o)
 .ARM.attributes
                0x000009ab       0x35 uspi/libuspi.a(usbmidi.o)
 .ARM.attributes
                0x000009e0       0x35 uspi/libuspi.a(usbconfigparser.o)
 .ARM.attributes
                0x00000a15       0x35 uspi/libuspi.a(usbdevicefactory.o)
 .ARM.attributes
                0x00000a4a       0x35 uspi/libuspi.a(usbstandardhub.o)
 .ARM.attributes
                0x00000a7f       0x35 uspi/libuspi.a(keymap.o)
 .ARM.attributes
                0x00000ab4       0x18 i:/development/arm/gnu tools arm embedded/5.4 2016q2/bin/../lib/gcc/arm-none-eabi/5.4.1/fpu\libgcc.a(_aeabi_uldivmod.o)
 .ARM.attributes
                0x00000acc       0x34 i:/development/arm/gnu tools arm embedded/5.4 2016q2/bin/../lib/gcc/arm-none-eabi/5.4.1/fpu\libgcc.a(_udivmoddi4.o)
 .ARM.attributes
                0x00000b00       0x18 i:/development/arm/gnu tools arm embedded/5.4 2016q2/bin/../lib/gcc/arm-none-eabi/5.4.1/fpu\libgcc.a(_dvmd_tls.o)
 .ARM.attributes
                0x00000b18       0x18 i:/development/arm/gnu tools arm embedded/5.4 2016q2/bin/../lib/gcc/arm-none-eabi/5.4.1/fpu\libgcc.a(_clzdi2.o)
 .ARM.attributes
                0x00000b30       0x18 i:/development/arm/gnu tools arm embedded/5.4 2016q2/bin/../lib/gcc/arm-none-eabi/5.4.1/fpu\libgcc.a(_clzsi2.o)
 .ARM.attributes
                0x00000b48       0x34 i:/development/arm/gnu tools arm embedded/5.4 2016q2/bin/../lib/gcc/arm-none-eabi/5.4.1/../../../../arm-none-eabi/lib/fpu\libc.a(lib_a-abs.o)
 .ARM.attributes
                0x00000b7c       0x34 i:/development/arm/gnu tools arm embedded/5.4 2016q2/bin/../lib/gcc/arm-none-eabi/5.4.1/../../../../arm-none-eabi/lib/fpu\libc.a(lib_a-aeabi_atexit.o)
 .ARM.attributes
                0x00000bb0       0x34 i:/development/arm/gnu tools arm embedded/5.4 2016q2/bin/../lib/gcc/arm-none-eabi/5.4.1/../../../../arm-none-eabi/lib/fpu\libc.a(lib_a-cxa_atexit.o)
 .ARM.attributes
                0x00000be4       0x34 i:/development/arm/gnu tools arm embedded/5.4 2016q2/bin/../lib/gcc/arm-none-eabi/5.4.1/../../../../arm-none-eabi/lib/fpu\libc.a(lib_a-init.o)
 .ARM.attributes
                0x00000c18       0x34 i:/development/arm/gnu tools arm embedded/5.4 2016q2/bin/../lib/gcc/arm-none-eabi/5.4.1/../../../../arm-none-eabi/lib/fpu\libc.a(lib_a-malloc.o)
 .ARM.attributes
                0x00000c4c       0x34 i:/development/arm/gnu tools arm embedded/5.4 2016q2/bin/../lib/gcc/arm-none-eabi/5.4.1/../../../../arm-none-eabi/lib/fpu\libc.a(lib_a-mallocr.o)
 .ARM.attributes
                0x00000c80       0x34 i:/development/arm/gnu tools arm embedded/5.4 2016q2/bin/../lib/gcc/arm-none-eabi/5.4.1/../../../../arm-none-eabi/lib/fpu\libc.a(lib_a-memcpy-stub.o)
 .ARM.attributes
                0x00000cb4       0x34 i:/development/arm/gnu tools arm embedded/5.4 2016q2/bin/../lib/gcc/arm-none-eabi/5.4.1/../../../../arm-none-eabi/lib/fpu\libc.a(lib_a-memset.o)
 .ARM.attributes
                0x00000ce8       0x34 i:/development/arm/gnu tools arm embedded/5.4 2016q2/bin/../lib/gcc/arm-none-eabi/5.4.1/../../../../arm-none-eabi/lib/fpu\libc.a(lib_a-mlock.o)
 .ARM.attributes
                0x00000d1c       0x34 i:/development/arm/gnu tools arm embedded/5.4 2016q2/bin/../lib/gcc/arm-none-eabi/5.4.1/../../../../arm-none-eabi/lib/fpu\libc.a(lib_a-printf.o)
 .ARM.attributes
                0x00000d50       0x34 i:/development/arm/gnu tools arm embedded/5.4 2016q2/bin/../lib/gcc/arm-none-eabi/5.4.1/../../../../arm-none-eabi/lib/fpu\libc.a(lib_a-reent.o)
 .ARM.attributes
                0x00000d84       0x34 i:/development/arm/gnu tools arm embedded/5.4 2016q2/bin/../lib/gcc/arm-none-eabi/5.4.1/../../../../arm-none-eabi/lib/fpu\libc.a(lib_a-sbrkr.o)
 .ARM.attributes
                0x00000db8       0x34 i:/development/arm/gnu tools arm embedded/5.4 2016q2/bin/../lib/gcc/arm-none-eabi/5.4.1/../../../../arm-none-eabi/lib/fpu\libc.a(lib_a-snprintf.o)
 .ARM.attributes
                0x00000dec       0x34 i:/development/arm/gnu tools arm embedded/5.4 2016q2/bin/../lib/gcc/arm-none-eabi/5.4.1/../../../../arm-none-eabi/lib/fpu\libc.a(lib_a-strcpy.o)
 .ARM.attributes
                0x00000e20       0x34 i:/development/arm/gnu tools arm embedded/5.4 2016q2/bin/../lib/gcc/arm-none-eabi/5.4.1/../../../../arm-none-eabi/lib/fpu\libc.a(lib_a-strlen-stub.o)
 .ARM.attributes
                0x00000e54       0x34 i:/development/arm/gnu tools arm embedded/5.4 2016q2/bin/../lib/gcc/arm-none-eabi/5.4.1/../../../../arm-none-eabi/lib/fpu\libc.a(lib_a-strncmp.o)
 .ARM.attributes
                0x00000e88       0x34 i:/development/arm/gnu tools arm embedded/5.4 2016q2/bin/../lib/gcc/arm-none-eabi/5.4.1/../../../../arm-none-eabi/lib/fpu\libc.a(lib_a-strrchr.o)
 .ARM.attributes
                0x00000ebc       0x34 i:/development/arm/gnu tools arm embedded/5.4 2016q2/bin/../lib/gcc/arm-none-eabi/5.4.1/../../../../arm-none-eabi/lib/fpu\libc.a(lib_a-svfprintf.o)
 .ARM.attributes
                0x00000ef0       0x34 i:/development/arm/gnu tools arm embedded/5.4 2016q2/bin/../lib/gcc/arm-none-eabi/5.4.1/../../../../arm-none-eabi/lib/fpu\libc.a(lib_a-vfprintf.o)
 .ARM.attributes
                0x00000f24       0x34 i:/development/arm/gnu tools arm embedded/5.4 2016q2/bin/../lib/gcc/arm-none-eabi/5.4.1/../../../../arm-none-eabi/lib/fpu\libc.a(lib_a-vprintf.o)
 .ARM.attributes
                0x00000f58       0x34 i:/development/arm/gnu tools arm embedded/5.4 2016q2/bin/../lib/gcc/arm-none-eabi/5.4.1/../../../../arm-none-eabi/lib/fpu\libc.a(lib_a-wsetup.o)
 .ARM.attributes
                0x00000f8c       0x34 i:/development/arm/gnu tools arm embedded/5.4 2016q2/bin/../lib/gcc/arm-none-eabi/5.4.1/../../../../arm-none-eabi/lib/fpu\libc.a(lib_a-__atexit.o)
 .ARM.attributes
                0x00000fc0       0x34 i:/development/arm/gnu tools arm embedded/5.4 2016q2/bin/../lib/gcc/arm-none-eabi/5.4.1/../../../../arm-none-eabi/lib/fpu\libc.a(lib_a-dtoa.o)
 .ARM.attributes
                0x00000ff4       0x34 i:/development/arm/gnu tools arm embedded/5.4 2016q2/bin/../lib/gcc/arm-none-eabi/5.4.1/../../../../arm-none-eabi/lib/fpu\libc.a(lib_a-fflush.o)
 .ARM.attributes
                0x00001028       0x34 i:/development/arm/gnu tools arm embedded/5.4 2016q2/bin/../lib/gcc/arm-none-eabi/5.4.1/../../../../arm-none-eabi/lib/fpu\libc.a(lib_a-findfp.o)
 .ARM.attributes
                0x0000105c       0x34 i:/development/arm/gnu tools arm embedded/5.4 2016q2/bin/../lib/gcc/arm-none-eabi/5.4.1/../../../../arm-none-eabi/lib/fpu\libc.a(lib_a-freer.o)
 .ARM.attributes
                0x00001090       0x34 i:/development/arm/gnu tools arm embedded/5.4 2016q2/bin/../lib/gcc/arm-none-eabi/5.4.1/../../../../arm-none-eabi/lib/fpu\libc.a(lib_a-fwalk.o)
 .ARM.attributes
                0x000010c4       0x34 i:/development/arm/gnu tools arm embedded/5.4 2016q2/bin/../lib/gcc/arm-none-eabi/5.4.1/../../../../arm-none-eabi/lib/fpu\libc.a(lib_a-impure.o)
 .ARM.attributes
                0x000010f8       0x34 i:/development/arm/gnu tools arm embedded/5.4 2016q2/bin/../lib/gcc/arm-none-eabi/5.4.1/../../../../arm-none-eabi/lib/fpu\libc.a(lib_a-locale.o)
 .ARM.attributes
                0x0000112c       0x34 i:/development/arm/gnu tools arm embedded/5.4 2016q2/bin/../lib/gcc/arm-none-eabi/5.4.1/../../../../arm-none-eabi/lib/fpu\libc.a(lib_a-makebuf.o)
 .ARM.attributes
                0x00001160       0x34 i:/development/arm/gnu tools arm embedded/5.4 2016q2/bin/../lib/gcc/arm-none-eabi/5.4.1/../../../../arm-none-eabi/lib/fpu\libc.a(lib_a-memchr-stub.o)
 .ARM.attributes
                0x00001194       0x34 i:/development/arm/gnu tools arm embedded/5.4 2016q2/bin/../lib/gcc/arm-none-eabi/5.4.1/../../../../arm-none-eabi/lib/fpu\libc.a(lib_a-mprec.o)
 .ARM.attributes
                0x000011c8       0x34 i:/development/arm/gnu tools arm embedded/5.4 2016q2/bin/../lib/gcc/arm-none-eabi/5.4.1/../../../../arm-none-eabi/lib/fpu\libc.a(lib_a-stdio.o)
 .ARM.attributes
                0x000011fc       0x34 i:/development/arm/gnu tools arm embedded/5.4 2016q2/bin/../lib/gcc/arm-none-eabi/5.4.1/../../../../arm-none-eabi/lib/fpu\libc.a(lib_a-strchr.o)
 .ARM.attributes
                0x00001230       0x16 i:/development/arm/gnu tools arm embedded/5.4 2016q2/bin/../lib/gcc/arm-none-eabi/5.4.1/../../../../arm-none-eabi/lib/fpu\libc.a(lib_a-strcmp.o)
 .ARM.attributes
                0x00001246       0x34 i:/development/arm/gnu tools arm embedded/5.4 2016q2/bin/../lib/gcc/arm-none-eabi/5.4.1/../../../../arm-none-eabi/lib/fpu\libc.a(lib_a-svfiprintf.o)
 .ARM.attributes
                0x0000127a       0x34 i:/development/arm/gnu tools arm embedded/5.4 2016q2/bin/../lib/gcc/arm-none-eabi/5.4.1/../../../../arm-none-eabi/lib/fpu\libc.a(lib_a-vfiprintf.o)
 .ARM.attributes
                0x000012ae       0x34 i:/development/arm/gnu tools arm embedded/5.4 2016q2/bin/../lib/gcc/arm-none-eabi/5.4.1/../../../../arm-none-eabi/lib/fpu\libc.a(lib_a-writer.o)
 .ARM.attributes
                0x000012e2       0x34 i:/development/arm/gnu tools arm embedded/5.4 2016q2/bin/../lib/gcc/arm-none-eabi/5.4.1/../../../../arm-none-eabi/lib/fpu\libc.a(lib_a-callocr.o)
 .ARM.attributes
                0x00001316       0x34 i:/development/arm/gnu tools arm embedded/5.4 2016q2/bin/../lib/gcc/arm-none-eabi/5.4.1/../../../../arm-none-eabi/lib/fpu\libc.a(lib_a-closer.o)
 .ARM.attributes
                0x0000134a       0x34 i:/development/arm/gnu tools arm embedded/5.4 2016q2/bin/../lib/gcc/arm-none-eabi/5.4.1/../../../../arm-none-eabi/lib/fpu\libc.a(lib_a-fclose.o)
 .ARM.attributes
                0x0000137e       0x34 i:/development/arm/gnu tools arm embedded/5.4 2016q2/bin/../lib/gcc/arm-none-eabi/5.4.1/../../../../arm-none-eabi/lib/fpu\libc.a(lib_a-fputwc.o)
 .ARM.attributes
                0x000013b2       0x34 i:/development/arm/gnu tools arm embedded/5.4 2016q2/bin/../lib/gcc/arm-none-eabi/5.4.1/../../../../arm-none-eabi/lib/fpu\libc.a(lib_a-fstatr.o)
 .ARM.attributes
                0x000013e6       0x34 i:/development/arm/gnu tools arm embedded/5.4 2016q2/bin/../lib/gcc/arm-none-eabi/5.4.1/../../../../arm-none-eabi/lib/fpu\libc.a(lib_a-fvwrite.o)
 .ARM.attributes
                0x0000141a       0x34 i:/development/arm/gnu tools arm embedded/5.4 2016q2/bin/../lib/gcc/arm-none-eabi/5.4.1/../../../../arm-none-eabi/lib/fpu\libc.a(lib_a-isattyr.o)
 .ARM.attributes
                0x0000144e       0x34 i:/development/arm/gnu tools arm embedded/5.4 2016q2/bin/../lib/gcc/arm-none-eabi/5.4.1/../../../../arm-none-eabi/lib/fpu\libc.a(lib_a-lseekr.o)
 .ARM.attributes
                0x00001482       0x34 i:/development/arm/gnu tools arm embedded/5.4 2016q2/bin/../lib/gcc/arm-none-eabi/5.4.1/../../../../arm-none-eabi/lib/fpu\libc.a(lib_a-memmove.o)
 .ARM.attributes
                0x000014b6       0x34 i:/development/arm/gnu tools arm embedded/5.4 2016q2/bin/../lib/gcc/arm-none-eabi/5.4.1/../../../../arm-none-eabi/lib/fpu\libc.a(lib_a-readr.o)
 .ARM.attributes
                0x000014ea       0x34 i:/development/arm/gnu tools arm embedded/5.4 2016q2/bin/../lib/gcc/arm-none-eabi/5.4.1/../../../../arm-none-eabi/lib/fpu\libc.a(lib_a-reallocr.o)
 .ARM.attributes
                0x0000151e       0x34 i:/development/arm/gnu tools arm embedded/5.4 2016q2/bin/../lib/gcc/arm-none-eabi/5.4.1/../../../../arm-none-eabi/lib/fpu\libc.a(lib_a-wbuf.o)
 .ARM.attributes
                0x00001552       0x34 i:/development/arm/gnu tools arm embedded/5.4 2016q2/bin/../lib/gcc/arm-none-eabi/5.4.1/../../../../arm-none-eabi/lib/fpu\libc.a(lib_a-wcrtomb.o)
 .ARM.attributes
                0x00001586       0x34 i:/development/arm/gnu tools arm embedded/5.4 2016q2/bin/../lib/gcc/arm-none-eabi/5.4.1/../../../../arm-none-eabi/lib/fpu\libc.a(lib_a-wctomb_r.o)
 .ARM.attributes
                0x000015ba       0x18 i:/development/arm/gnu tools arm embedded/5.4 2016q2/bin/../lib/gcc/arm-none-eabi/5.4.1/fpu\libgcc.a(_udivsi3.o)
 .ARM.attributes
                0x000015d2       0x18 i:/development/arm/gnu tools arm embedded/5.4 2016q2/bin/../lib/gcc/arm-none-eabi/5.4.1/fpu\libgcc.a(_divsi3.o)
 *(.gnu.attributes)

.note.gnu.arm.ident
 *(.note.gnu.arm.ident)

/DISCARD/
 *(.note.GNU-stack)
 *(.gnu_debuglink)
 *(.gnu.lto_*)
OUTPUT(target/kernel.elf elf32-littlearm)
